

Microchip MPLAB XC8 Assembler V2.31 build 20201012212115 
                                                                                               Fri Oct 01 01:28:10 2021

Microchip MPLAB XC8 C Compiler v2.31 (Free license) build 20201012212115 Og1 
     1                           	processor	18F47K42
     2                           	fnconf	rparam,??,?,0
     3                           	pagewidth 120
     4                           	opt	flic
     5                           	psect	idataCOMRAM,global,class=CODE,delta=1,noexec
     6                           	psect	idataBANK0,global,class=CODE,delta=1,noexec
     7                           	psect	idataBANK1,global,class=CODE,delta=1,noexec
     8                           	psect	idataBANK2,global,class=CODE,delta=1,noexec
     9                           	psect	smallconst,global,reloc=2,class=SMALLCONST,delta=1,noexec
    10                           	psect	nvBANK0,global,class=BANK0,space=1,delta=1,lowdata,noexec
    11                           	psect	cinit,global,reloc=2,class=CODE,delta=1
    12                           	psect	bssCOMRAM,global,class=COMRAM,space=1,delta=1,lowdata,noexec
    13                           	psect	dataCOMRAM,global,class=COMRAM,space=1,delta=1,lowdata,noexec
    14                           	psect	bssBANK0,global,class=BANK0,space=1,delta=1,lowdata,noexec
    15                           	psect	dataBANK0,global,class=BANK0,space=1,delta=1,lowdata,noexec
    16                           	psect	bssBANK1,global,class=BANK1,space=1,delta=1,lowdata,noexec
    17                           	psect	dataBANK1,global,class=BANK1,space=1,delta=1,lowdata,noexec
    18                           	psect	bssBANK2,global,class=BANK2,space=1,delta=1,lowdata,noexec
    19                           	psect	dataBANK2,global,class=BANK2,space=1,delta=1,lowdata,noexec
    20                           	psect	cstackBANK1,global,class=BANK1,space=1,delta=1,lowdata,noexec
    21                           	psect	cstackBANK0,global,class=BANK0,space=1,delta=1,lowdata,noexec
    22                           	psect	cstackCOMRAM,global,class=COMRAM,space=1,delta=1,lowdata,noexec
    23                           	psect	text0,global,reloc=2,class=CODE,delta=1
    24                           	psect	text1,global,reloc=2,class=CODE,delta=1
    25                           	psect	text2,global,reloc=2,class=CODE,delta=1
    26                           	psect	text3,global,reloc=2,class=CODE,delta=1,group=1
    27                           	psect	text4,global,reloc=2,class=CODE,delta=1
    28                           	psect	text5,global,reloc=2,class=CODE,delta=1
    29                           	psect	text6,global,reloc=2,class=CODE,delta=1,group=1
    30                           	psect	text7,global,reloc=2,class=CODE,delta=1,group=1
    31                           	psect	text8,global,reloc=2,class=CODE,delta=1,group=1
    32                           	psect	text9,global,reloc=2,class=CODE,delta=1
    33                           	psect	text10,global,reloc=2,class=CODE,delta=1
    34                           	psect	text11,global,reloc=2,class=CODE,delta=1,group=1
    35                           	psect	text12,global,reloc=2,class=CODE,delta=1,group=1
    36                           	psect	text13,global,reloc=2,class=CODE,delta=1
    37                           	psect	text14,global,reloc=2,class=CODE,delta=1
    38                           	psect	text15,global,reloc=2,class=CODE,delta=1,group=1
    39                           	psect	text16,global,reloc=2,class=CODE,delta=1
    40                           	psect	text17,global,reloc=2,class=CODE,delta=1
    41                           	psect	text18,global,reloc=2,class=CODE,delta=1
    42                           	psect	text19,global,reloc=2,class=CODE,delta=1
    43                           	psect	text20,global,reloc=2,class=CODE,delta=1
    44                           	psect	text21,global,reloc=2,class=CODE,delta=1
    45                           	psect	text22,global,reloc=2,class=CODE,delta=1
    46                           	psect	text23,global,reloc=2,class=CODE,delta=1
    47                           	psect	text24,global,reloc=2,class=CODE,delta=1
    48                           	psect	text25,global,reloc=2,class=CODE,delta=1
    49                           	psect	text26,global,reloc=2,class=CODE,delta=1
    50                           	psect	text27,global,reloc=2,class=CODE,delta=1
    51                           	psect	text28,global,reloc=2,class=CODE,delta=1
    52                           	psect	text29,global,reloc=2,class=CODE,delta=1
    53                           	psect	text30,global,reloc=2,class=CODE,delta=1
    54                           	psect	text31,global,reloc=2,class=CODE,delta=1
    55                           	psect	text32,global,reloc=2,class=CODE,delta=1
    56                           	psect	ivt0x8,global,reloc=2,class=CODE,delta=1,noexec,keep,optim=
    57                           	psect	intsave_regs,global,class=BIGRAM,space=1,delta=1,noexec
    58                           	psect	rparam,global,class=COMRAM,space=1,delta=1,noexec
    59                           	psect	idloc,global,abs,ovrld,class=IDLOC,space=5,delta=1,noexec
    60                           	psect	config,global,abs,ovrld,class=CONFIG,space=4,delta=1,noexec
    61  0000                     
    62                           ; Version 2.20
    63                           ; Generated 05/05/2020 GMT
    64                           ; 
    65                           ; Copyright © 2020, Microchip Technology Inc. and its subsidiaries ("Microchip")
    66                           ; All rights reserved.
    67                           ; 
    68                           ; This software is developed by Microchip Technology Inc. and its subsidiaries ("Microch
      +                          ip").
    69                           ; 
    70                           ; Redistribution and use in source and binary forms, with or without modification, are
    71                           ; permitted provided that the following conditions are met:
    72                           ; 
    73                           ;     1. Redistributions of source code must retain the above copyright notice, this lis
      +                          t of
    74                           ;        conditions and the following disclaimer.
    75                           ; 
    76                           ;     2. Redistributions in binary form must reproduce the above copyright notice, this 
      +                          list
    77                           ;        of conditions and the following disclaimer in the documentation and/or other
    78                           ;        materials provided with the distribution.
    79                           ; 
    80                           ;     3. Microchip's name may not be used to endorse or promote products derived from th
      +                          is
    81                           ;        software without specific prior written permission.
    82                           ; 
    83                           ; THIS SOFTWARE IS PROVIDED BY MICROCHIP "AS IS" AND ANY EXPRESS OR IMPLIED WARRANTIES,
    84                           ; INCLUDING, BUT NOT LIMITED TO, THE IMPLIED WARRANTIES OF MERCHANTABILITY AND FITNESS F
      +                          OR
    85                           ; PURPOSE ARE DISCLAIMED.  IN NO EVENT SHALL MICROCHIP BE LIABLE FOR ANY DIRECT, INDIREC
      +                          T,
    86                           ; INCIDENTAL, SPECIAL, EXEMPLARY, OR CONSEQUENTIAL DAMAGES (INCLUDING BUT NOT LIMITED TO
    87                           ; PROCUREMENT OF SUBSTITUTE GOODS OR SERVICES; LOSS OF USE, DATA OR PROFITS; OR BUSINESS
    88                           ; INTERRUPTION) HOWSOEVER CAUSED AND ON ANY THEORY OF LIABILITY, WHETHER IN CONTRACT, ST
      +                          RICT
    89                           ; LIABILITY, OR TORT (INCLUDING NEGLIGENCE OR OTHERWISE) ARISING IN ANY WAY OUT OF THE U
      +                          SE OF
    90                           ; THIS SOFTWARE, EVEN IF ADVISED OF THE POSSIBILITY OF SUCH DAMAGE.
    91                           ; 
    92                           ; 
    93                           ; Code-generator required, PIC18F47K42 Definitions
    94                           ; 
    95                           ; SFR Addresses
    96  0000                     
    97                           	psect	idataCOMRAM
    98  003D7E                     __pidataCOMRAM:
    99                           	callstack 0
   100                           
   101                           ;initializer for _n3
   102  003D7E  0012               	dw	18
   103                           
   104                           ;initializer for _n2
   105  003D80  000C               	dw	12
   106                           
   107                           ;initializer for _n1
   108  003D82  0008               	dw	8
   109                           
   110                           ;initializer for _k
   111  003D84  0001               	dw	1
   112                           
   113                           ;initializer for _count
   114  003D86  0001               	dw	1
   115                           
   116                           ;initializer for _command_length
   117  003D88  03                 	db	3
   118                           
   119                           ;initializer for _n_canales
   120  003D89  02                 	db	2
   121                           
   122                           ;initializer for _len_buffertx
   123  003D8A  09                 	db	9
   124                           
   125                           	psect	idataBANK0
   126  003C36                     __pidataBANK0:
   127                           	callstack 0
   128                           
   129                           ;initializer for _coef1
   130  003C36  0000               	dw	0
   131  003C38  09C0               	dw	2496
   132  003C3A  2A80               	dw	10880
   133  003C3C  4BC0               	dw	19392
   134  003C3E  4BC0               	dw	19392
   135  003C40  2A80               	dw	10880
   136  003C42  09C0               	dw	2496
   137  003C44  0000               	dw	0
   138                           
   139                           ;initializer for _gain3
   140  003C46  25B1               	dw	9649
   141  003C48  3EB9               	dw	16057
   142  003C4A  1081               	dw	4225
   143  003C4C  3E85               	dw	16005
   144                           
   145                           ;initializer for _gain2
   146  003C4E  B0BC               	dw	45244
   147  003C50  3E81               	dw	16001
   148  003C52  5111               	dw	20753
   149  003C54  3E3C               	dw	15932
   150                           
   151                           ;initializer for _gain1
   152  003C56  3BE4               	dw	15332
   153  003C58  3F62               	dw	16226
   154  003C5A  3BE4               	dw	15332
   155  003C5C  3F62               	dw	16226
   156                           
   157                           ;initializer for _clk_freq
   158  003C5E  2400               	dw	9216
   159  003C60  4C74               	dw	19572
   160                           
   161                           ;initializer for _n_secciones3
   162  003C62  0002               	dw	2
   163                           
   164                           ;initializer for _n_secciones2
   165  003C64  0002               	dw	2
   166                           
   167                           ;initializer for _n_secciones1
   168  003C66  0002               	dw	2
   169                           
   170                           ;initializer for _n4
   171  003C68  001F               	dw	31
   172                           
   173                           ;initializer for _ps
   174  003C6A  0001               	dw	1
   175                           
   176                           ;initializer for _lecturas_ascii
   177  003C6C  00                 	db	0
   178  003C6D  00                 	db	0
   179  003C6E  00                 	db	0
   180  003C6F  00                 	db	0
   181  003C70  00                 	db	0
   182  003C71  00                 	db	0
   183  003C72  00                 	db	0
   184  003C73  00                 	db	0
   185  003C74  0A                 	db	10
   186                           
   187                           ;initializer for _des_Ts
   188  003C75  0B61               	dw	2913
   189  003C77  3BB6               	dw	15286
   190                           
   191                           ;initializer for _Ts
   192  003C79  B717               	dw	46871
   193  003C7B  38D1               	dw	14545
   194                           
   195                           	psect	idataBANK1
   196  003678                     __pidataBANK1:
   197                           	callstack 0
   198                           
   199                           ;initializer for _den3
   200  003678  0000               	dw	0
   201  00367A  3F80               	dw	16256
   202  00367C  25B1               	dw	9649
   203  00367E  A5B9               	dw	42425
   204  003680  96C2               	dw	38594
   205  003682  3EE4               	dw	16100
   206  003684  0000               	dw	0
   207  003686  3F80               	dw	16256
   208  003688  1081               	dw	4225
   209  00368A  A585               	dw	42373
   210  00368C  1018               	dw	4120
   211  00368E  3D22               	dw	15650
   212                           
   213                           ;initializer for _num3
   214  003690  0000               	dw	0
   215  003692  3F80               	dw	16256
   216  003694  0000               	dw	0
   217  003696  C000               	dw	49152
   218  003698  0000               	dw	0
   219  00369A  3F80               	dw	16256
   220  00369C  0000               	dw	0
   221  00369E  3F80               	dw	16256
   222  0036A0  0000               	dw	0
   223  0036A2  C000               	dw	49152
   224  0036A4  0000               	dw	0
   225  0036A6  3F80               	dw	16256
   226                           
   227                           ;initializer for _den2
   228  0036A8  0000               	dw	0
   229  0036AA  3F80               	dw	16256
   230  0036AC  FF48               	dw	65352
   231  0036AE  BEE7               	dw	48871
   232  0036B0  C23A               	dw	49722
   233  0036B2  3EEE               	dw	16110
   234  0036B4  0000               	dw	0
   235  0036B6  3F80               	dw	16256
   236  0036B8  6F80               	dw	28544
   237  0036BA  BEA8               	dw	48808
   238  0036BC  4688               	dw	18056
   239  0036BE  3D84               	dw	15748
   240                           
   241                           ;initializer for _num2
   242  0036C0  0000               	dw	0
   243  0036C2  3F80               	dw	16256
   244  0036C4  0000               	dw	0
   245  0036C6  4000               	dw	16384
   246  0036C8  0000               	dw	0
   247  0036CA  3F80               	dw	16256
   248  0036CC  0000               	dw	0
   249  0036CE  3F80               	dw	16256
   250  0036D0  0000               	dw	0
   251  0036D2  4000               	dw	16384
   252  0036D4  0000               	dw	0
   253  0036D6  3F80               	dw	16256
   254                           
   255                           ;initializer for _den1
   256  0036D8  0000               	dw	0
   257  0036DA  3F80               	dw	16256
   258  0036DC  B313               	dw	45843
   259  0036DE  3F8B               	dw	16267
   260  0036E0  B8B1               	dw	47281
   261  0036E2  3F4B               	dw	16203
   262  0036E4  0000               	dw	0
   263  0036E6  3F80               	dw	16256
   264  0036E8  405B               	dw	16475
   265  0036EA  3F31               	dw	16177
   266  0036EC  6589               	dw	25993
   267  0036EE  3F44               	dw	16196
   268                           
   269                           ;initializer for _num1
   270  0036F0  0000               	dw	0
   271  0036F2  3F80               	dw	16256
   272  0036F4  F980               	dw	63872
   273  0036F6  3F81               	dw	16257
   274  0036F8  0000               	dw	0
   275  0036FA  3F80               	dw	16256
   276  0036FC  0000               	dw	0
   277  0036FE  3F80               	dw	16256
   278  003700  F980               	dw	63872
   279  003702  3F81               	dw	16257
   280  003704  0000               	dw	0
   281  003706  3F80               	dw	16256
   282                           
   283                           ;initializer for _coef2
   284  003708  0000               	dw	0
   285  00370A  0080               	dw	128
   286  00370C  0660               	dw	1632
   287  00370E  15A0               	dw	5536
   288  003710  2A40               	dw	10816
   289  003712  3940               	dw	14656
   290  003714  3940               	dw	14656
   291  003716  2A40               	dw	10816
   292  003718  15A0               	dw	5536
   293  00371A  0660               	dw	1632
   294  00371C  0080               	dw	128
   295  00371E  0000               	dw	0
   296                           
   297                           	psect	idataBANK2
   298  003A94                     __pidataBANK2:
   299                           	callstack 0
   300                           
   301                           ;initializer for _coef3
   302  003A94  0000               	dw	0
   303  003A96  0000               	dw	0
   304  003A98  0180               	dw	384
   305  003A9A  0280               	dw	640
   306  003A9C  FB40               	dw	64320
   307  003A9E  F200               	dw	61952
   308  003AA0  0000               	dw	0
   309  003AA2  2FC0               	dw	12224
   310  003AA4  5F00               	dw	24320
   311  003AA6  5F00               	dw	24320
   312  003AA8  2FC0               	dw	12224
   313  003AAA  0000               	dw	0
   314  003AAC  F200               	dw	61952
   315  003AAE  FB40               	dw	64320
   316  003AB0  0280               	dw	640
   317  003AB2  0180               	dw	384
   318  003AB4  0000               	dw	0
   319  003AB6  0000               	dw	0
   320                           
   321                           ;initializer for _coef4
   322  003AB8  0000               	dw	0
   323  003ABA  0000               	dw	0
   324  003ABC  0040               	dw	64
   325  003ABE  0000               	dw	0
   326  003AC0  FF80               	dw	65408
   327  003AC2  0000               	dw	0
   328  003AC4  0180               	dw	384
   329  003AC6  0000               	dw	0
   330  003AC8  FCC0               	dw	64704
   331  003ACA  0000               	dw	0
   332  003ACC  0600               	dw	1536
   333  003ACE  0000               	dw	0
   334  003AD0  F3C0               	dw	62400
   335  003AD2  0000               	dw	0
   336  003AD4  2840               	dw	10304
   337  003AD6  4000               	dw	16384
   338  003AD8  2840               	dw	10304
   339  003ADA  0000               	dw	0
   340  003ADC  F3C0               	dw	62400
   341  003ADE  0000               	dw	0
   342  003AE0  0600               	dw	1536
   343  003AE2  0000               	dw	0
   344  003AE4  FCC0               	dw	64704
   345  003AE6  0000               	dw	0
   346  003AE8  0180               	dw	384
   347  003AEA  0000               	dw	0
   348  003AEC  FF80               	dw	65408
   349  003AEE  0000               	dw	0
   350  003AF0  0040               	dw	64
   351  003AF2  0000               	dw	0
   352  003AF4  0000               	dw	0
   353                           
   354                           	psect	smallconst
   355  002000                     __psmallconst:
   356                           	callstack 0
   357  002000  00                 	db	0
   358  002001  02                 	db	2
   359  002002  00                 	db	0
   360  002003  02                 	db	2
   361  002004  04                 	db	4
   362  002005  00                 	db	0
   363  002006                     __end_of_spi1_configuration:
   364                           	callstack 0
   365  002006  00                 	db	0	; dummy byte at the end
   366  0000                     
   367                           	psect	nvBANK0
   368  0000FA                     __pnvBANK0:
   369                           	callstack 0
   370  0000FA                     _freq:
   371                           	callstack 0
   372  0000FA                     	ds	4
   373  0000FE                     _init_count:
   374                           	callstack 0
   375  0000FE                     	ds	2
   376  0000                     _PIE1bits	set	14737
   377  0000                     _PIE3bits	set	14739
   378  0000                     _PIR1bits	set	14753
   379  0000                     _PIR3bits	set	14755
   380  0000                     _PMD7	set	14791
   381  0000                     _PMD6	set	14790
   382  0000                     _PMD5	set	14789
   383  0000                     _PMD4	set	14788
   384  0000                     _PMD3	set	14787
   385  0000                     _PMD2	set	14786
   386  0000                     _PMD1	set	14785
   387  0000                     _PMD0	set	14784
   388  0000                     _OSCTUNE	set	14814
   389  0000                     _OSCFRQ	set	14815
   390  0000                     _OSCEN	set	14813
   391  0000                     _OSCCON3	set	14811
   392  0000                     _OSCCON1	set	14809
   393  0000                     _RC6PPS	set	14870
   394  0000                     _U1RXPPS	set	15077
   395  0000                     _SPI1SDIPPS	set	15071
   396  0000                     _RC5PPS	set	14869
   397  0000                     _RC3PPS	set	14867
   398  0000                     _SPI1SCKPPS	set	15070
   399  0000                     _INLVLE	set	14980
   400  0000                     _INLVLD	set	14964
   401  0000                     _INLVLC	set	14948
   402  0000                     _INLVLB	set	14932
   403  0000                     _INLVLA	set	14916
   404  0000                     _SLRCONE	set	14979
   405  0000                     _SLRCOND	set	14963
   406  0000                     _SLRCONC	set	14947
   407  0000                     _SLRCONB	set	14931
   408  0000                     _SLRCONA	set	14915
   409  0000                     _ODCOND	set	14962
   410  0000                     _ODCONC	set	14946
   411  0000                     _ODCONB	set	14930
   412  0000                     _ODCONA	set	14914
   413  0000                     _ODCONE	set	14978
   414  0000                     _RD1I2C	set	14971
   415  0000                     _RD0I2C	set	14970
   416  0000                     _RC4I2C	set	14955
   417  0000                     _RC3I2C	set	14954
   418  0000                     _RB2I2C	set	14939
   419  0000                     _RB1I2C	set	14938
   420  0000                     _WPUC	set	14945
   421  0000                     _WPUA	set	14913
   422  0000                     _WPUB	set	14929
   423  0000                     _WPUE	set	14977
   424  0000                     _WPUD	set	14961
   425  0000                     _ANSELA	set	14912
   426  0000                     _ANSELE	set	14976
   427  0000                     _ANSELB	set	14928
   428  0000                     _ANSELC	set	14944
   429  0000                     _ANSELD	set	14960
   430  0000                     _SPI1TCNT	set	15634
   431  0000                     _U1ERRIRbits	set	15865
   432  0000                     _U1RXB	set	15848
   433  0000                     _U1TXB	set	15850
   434  0000                     _U1CON1bits	set	15859
   435  0000                     _U1CON0bits	set	15858
   436  0000                     _U1BRGL	set	15861
   437  0000                     _U1BRGH	set	15862
   438  0000                     _SPI1STATUSbits	set	15639
   439  0000                     _SPI1TXB	set	15633
   440  0000                     _SPI1CON0bits	set	15636
   441  0000                     _SPI1TWIDTH	set	15640
   442  0000                     _SPI1BAUD	set	15641
   443  0000                     _SPI1CLK	set	15644
   444  0000                     _SPI1CON2	set	15638
   445  0000                     _SPI1CON1	set	15637
   446  0000                     _SPI1CON0	set	15636
   447  0000                     _ADRESL	set	16111
   448  0000                     _ADRESH	set	16112
   449  0000                     _ADPCHbits	set	16113
   450  0000                     _ADREFbits	set	16125
   451  0000                     _ADCLKbits	set	16127
   452  0000                     _ADCON2bits	set	16122
   453  0000                     _ADCON0bits	set	16120
   454  0000                     _FVRCONbits	set	16065
   455  0000                     _TMR0L	set	16310
   456  0000                     _TMR0H	set	16311
   457  0000                     _T0CON0bits	set	16312
   458  0000                     _T0CON1bits	set	16313
   459  0000                     _INTCON0bits	set	16338
   460  0000                     _LATDbits	set	16317
   461  0000                     _TRISD	set	16325
   462  0000                     _TRISC	set	16324
   463  0000                     _TRISB	set	16323
   464  0000                     _TRISA	set	16322
   465  0000                     _TRISE	set	16326
   466  0000                     _LATC	set	16316
   467  0000                     _LATB	set	16315
   468  0000                     _LATA	set	16314
   469  0000                     _LATD	set	16317
   470  0000                     _LATE	set	16318
   471  0000                     _LATBbits	set	16315
   472  0000                     _LATEbits	set	16318
   473  0000                     _TRISCbits	set	16324
   474                           
   475                           ; #config settings
   476                           
   477                           	psect	cinit
   478  00336A                     __pcinit:
   479                           	callstack 0
   480  00336A                     start_initialization:
   481                           	callstack 0
   482  00336A                     __initialization:
   483                           	callstack 0
   484                           
   485                           ; Initialize objects allocated to BANK2 (98 bytes)
   486                           ; load TBLPTR registers with __pidataBANK2
   487  00336A  0E94               	movlw	low __pidataBANK2
   488  00336C  6EF6               	movwf	tblptrl,c
   489  00336E  0E3A               	movlw	high __pidataBANK2
   490  003370  6EF7               	movwf	tblptrh,c
   491  003372  0E00               	movlw	low (__pidataBANK2 shr (0+16))
   492  003374  6EF8               	movwf	tblptru,c
   493  003376  EE00  F200         	lfsr	0,__pdataBANK2
   494  00337A  EE10 F062          	lfsr	1,98
   495  00337E                     copy_data0:
   496  00337E  0009               	tblrd		*+
   497  003380  006F FFD7 FFEE     	movff	tablat,postinc0
   498  003386  50E5               	movf	postdec1,w,c
   499  003388  50E1               	movf	fsr1l,w,c
   500  00338A  E1F9               	bnz	copy_data0
   501                           
   502                           ; Initialize objects allocated to BANK1 (168 bytes)
   503                           ; load TBLPTR registers with __pidataBANK1
   504  00338C  0E78               	movlw	low __pidataBANK1
   505  00338E  6EF6               	movwf	tblptrl,c
   506  003390  0E36               	movlw	high __pidataBANK1
   507  003392  6EF7               	movwf	tblptrh,c
   508  003394  0E00               	movlw	low (__pidataBANK1 shr (0+16))
   509  003396  6EF8               	movwf	tblptru,c
   510  003398  EE00  F100         	lfsr	0,__pdataBANK1
   511  00339C  EE10 F0A8          	lfsr	1,168
   512  0033A0                     copy_data1:
   513  0033A0  0009               	tblrd		*+
   514  0033A2  006F FFD7 FFEE     	movff	tablat,postinc0
   515  0033A8  50E5               	movf	postdec1,w,c
   516  0033AA  50E1               	movf	fsr1l,w,c
   517  0033AC  E1F9               	bnz	copy_data1
   518                           
   519                           ; Initialize objects allocated to BANK0 (71 bytes)
   520                           ; load TBLPTR registers with __pidataBANK0
   521  0033AE  0E36               	movlw	low __pidataBANK0
   522  0033B0  6EF6               	movwf	tblptrl,c
   523  0033B2  0E3C               	movlw	high __pidataBANK0
   524  0033B4  6EF7               	movwf	tblptrh,c
   525  0033B6  0E00               	movlw	low (__pidataBANK0 shr (0+16))
   526  0033B8  6EF8               	movwf	tblptru,c
   527  0033BA  EE00  F060         	lfsr	0,__pdataBANK0
   528  0033BE  EE10 F047          	lfsr	1,71
   529  0033C2                     copy_data2:
   530  0033C2  0009               	tblrd		*+
   531  0033C4  006F FFD7 FFEE     	movff	tablat,postinc0
   532  0033CA  50E5               	movf	postdec1,w,c
   533  0033CC  50E1               	movf	fsr1l,w,c
   534  0033CE  E1F9               	bnz	copy_data2
   535                           
   536                           ; Initialize objects allocated to COMRAM (13 bytes)
   537                           ; load TBLPTR registers with __pidataCOMRAM
   538  0033D0  0E7E               	movlw	low __pidataCOMRAM
   539  0033D2  6EF6               	movwf	tblptrl,c
   540  0033D4  0E3D               	movlw	high __pidataCOMRAM
   541  0033D6  6EF7               	movwf	tblptrh,c
   542  0033D8  0E00               	movlw	low (__pidataCOMRAM shr (0+16))
   543  0033DA  6EF8               	movwf	tblptru,c
   544  0033DC  EE00  F035         	lfsr	0,__pdataCOMRAM
   545  0033E0  EE10 F00D          	lfsr	1,13
   546  0033E4                     copy_data3:
   547  0033E4  0009               	tblrd		*+
   548  0033E6  006F FFD7 FFEE     	movff	tablat,postinc0
   549  0033EC  50E5               	movf	postdec1,w,c
   550  0033EE  50E1               	movf	fsr1l,w,c
   551  0033F0  E1F9               	bnz	copy_data3
   552                           
   553                           ; Clear objects allocated to BANK2 (36 bytes)
   554  0033F2  EE00  F262         	lfsr	0,__pbssBANK2
   555  0033F6  0E24               	movlw	36
   556  0033F8                     clear_0:
   557  0033F8  6AEE               	clrf	postinc0,c
   558  0033FA  06E8               	decf	wreg,f,c
   559  0033FC  E1FD               	bnz	clear_0
   560                           
   561                           ; Clear objects allocated to BANK1 (60 bytes)
   562  0033FE  EE00  F1A8         	lfsr	0,__pbssBANK1
   563  003402  0E3C               	movlw	60
   564  003404                     clear_1:
   565  003404  6AEE               	clrf	postinc0,c
   566  003406  06E8               	decf	wreg,f,c
   567  003408  E1FD               	bnz	clear_1
   568                           
   569                           ; Clear objects allocated to BANK0 (50 bytes)
   570  00340A  EE00  F0A7         	lfsr	0,__pbssBANK0
   571  00340E  0E32               	movlw	50
   572  003410                     clear_2:
   573  003410  6AEE               	clrf	postinc0,c
   574  003412  06E8               	decf	wreg,f,c
   575  003414  E1FD               	bnz	clear_2
   576                           
   577                           ; Clear objects allocated to COMRAM (8 bytes)
   578  003416  EE00  F042         	lfsr	0,__pbssCOMRAM
   579  00341A  0E08               	movlw	8
   580  00341C                     clear_3:
   581  00341C  6AEE               	clrf	postinc0,c
   582  00341E  06E8               	decf	wreg,f,c
   583  003420  E1FD               	bnz	clear_3
   584                           
   585                           ;
   586                           ; Setup IVTBASE
   587                           ;
   588  003422  0E08               	movlw	(ivt0x8_base shr 0)& (0+255)
   589  003424  6ED5               	movwf	213,c
   590  003426  0E00               	movlw	(ivt0x8_base shr (0+8))& (0+255)
   591  003428  6ED6               	movwf	214,c
   592  00342A  0E00               	movlw	(ivt0x8_base shr (0+16))& (0+255)
   593  00342C  6ED7               	movwf	215,c
   594  00342E                     end_of_initialization:
   595                           	callstack 0
   596  00342E                     __end_of__initialization:
   597                           	callstack 0
   598  00342E  0E00               	movlw	low (__Lsmallconst shr (0+16))
   599  003430  6EF8               	movwf	tblptru,c
   600  003432  0E20               	movlw	high __Lsmallconst
   601  003434  6EF7               	movwf	tblptrh,c
   602  003436  0100               	movlb	0
   603  003438  EFA9  F018         	goto	_main	;jump to C main() function
   604                           
   605                           	psect	bssCOMRAM
   606  000042                     __pbssCOMRAM:
   607                           	callstack 0
   608  000042                     _command_bcd:
   609                           	callstack 0
   610  000042                     	ds	2
   611  000044                     _bufferrx_pointer:
   612                           	callstack 0
   613  000044                     	ds	2
   614  000046                     _buffertx_pointer:
   615                           	callstack 0
   616  000046                     	ds	2
   617  000048                     _rx_done:
   618                           	callstack 0
   619  000048                     	ds	1
   620  000049                     _canal_actual:
   621                           	callstack 0
   622  000049                     	ds	1
   623                           
   624                           	psect	dataCOMRAM
   625  000035                     __pdataCOMRAM:
   626                           	callstack 0
   627  000035                     _n3:
   628                           	callstack 0
   629  000035                     	ds	2
   630  000037                     _n2:
   631                           	callstack 0
   632  000037                     	ds	2
   633  000039                     _n1:
   634                           	callstack 0
   635  000039                     	ds	2
   636  00003B                     _k:
   637                           	callstack 0
   638  00003B                     	ds	2
   639  00003D                     _count:
   640                           	callstack 0
   641  00003D                     	ds	2
   642  00003F                     _command_length:
   643                           	callstack 0
   644  00003F                     	ds	1
   645  000040                     _n_canales:
   646                           	callstack 0
   647  000040                     	ds	1
   648  000041                     _len_buffertx:
   649                           	callstack 0
   650  000041                     	ds	1
   651                           
   652                           	psect	bssBANK0
   653  0000A7                     __pbssBANK0:
   654                           	callstack 0
   655  0000A7                     _buffertx:
   656                           	callstack 0
   657  0000A7                     	ds	10
   658  0000B1                     _prueba:
   659                           	callstack 0
   660  0000B1                     	ds	4
   661  0000B5                     _out:
   662                           	callstack 0
   663  0000B5                     	ds	4
   664  0000B9                     _out_filtro:
   665                           	callstack 0
   666  0000B9                     	ds	4
   667  0000BD                     _command:
   668                           	callstack 0
   669  0000BD                     	ds	3
   670  0000C0                     _lectura_done:
   671                           	callstack 0
   672  0000C0                     	ds	1
   673  0000C1                     _filtro_fir_2:
   674                           	callstack 0
   675  0000C1                     	ds	8
   676  0000C9                     _filtro_fir_1:
   677                           	callstack 0
   678  0000C9                     	ds	8
   679  0000D1                     _lecturas_filtradas:
   680                           	callstack 0
   681  0000D1                     	ds	4
   682  0000D5                     _lecturas:
   683                           	callstack 0
   684  0000D5                     	ds	4
   685                           
   686                           	psect	dataBANK0
   687  000060                     __pdataBANK0:
   688                           	callstack 0
   689  000060                     _coef1:
   690                           	callstack 0
   691  000060                     	ds	16
   692  000070                     _gain3:
   693                           	callstack 0
   694  000070                     	ds	8
   695  000078                     _gain2:
   696                           	callstack 0
   697  000078                     	ds	8
   698  000080                     _gain1:
   699                           	callstack 0
   700  000080                     	ds	8
   701  000088                     _clk_freq:
   702                           	callstack 0
   703  000088                     	ds	4
   704  00008C                     _n_secciones3:
   705                           	callstack 0
   706  00008C                     	ds	2
   707  00008E                     _n_secciones2:
   708                           	callstack 0
   709  00008E                     	ds	2
   710  000090                     _n_secciones1:
   711                           	callstack 0
   712  000090                     	ds	2
   713  000092                     _n4:
   714                           	callstack 0
   715  000092                     	ds	2
   716  000094                     _ps:
   717                           	callstack 0
   718  000094                     	ds	2
   719  000096                     _lecturas_ascii:
   720                           	callstack 0
   721  000096                     	ds	9
   722  00009F                     _des_Ts:
   723                           	callstack 0
   724  00009F                     	ds	4
   725  0000A3                     _Ts:
   726                           	callstack 0
   727  0000A3                     	ds	4
   728                           
   729                           	psect	bssBANK1
   730  0001A8                     __pbssBANK1:
   731                           	callstack 0
   732  0001A8                     _w:
   733                           	callstack 0
   734  0001A8                     	ds	24
   735  0001C0                     _x1:
   736                           	callstack 0
   737  0001C0                     	ds	36
   738                           
   739                           	psect	dataBANK1
   740  000100                     __pdataBANK1:
   741                           	callstack 0
   742  000100                     _den3:
   743                           	callstack 0
   744  000100                     	ds	24
   745  000118                     _num3:
   746                           	callstack 0
   747  000118                     	ds	24
   748  000130                     _den2:
   749                           	callstack 0
   750  000130                     	ds	24
   751  000148                     _num2:
   752                           	callstack 0
   753  000148                     	ds	24
   754  000160                     _den1:
   755                           	callstack 0
   756  000160                     	ds	24
   757  000178                     _num1:
   758                           	callstack 0
   759  000178                     	ds	24
   760  000190                     _coef2:
   761                           	callstack 0
   762  000190                     	ds	24
   763                           
   764                           	psect	bssBANK2
   765  000262                     __pbssBANK2:
   766                           	callstack 0
   767  000262                     _x2:
   768                           	callstack 0
   769  000262                     	ds	36
   770                           
   771                           	psect	dataBANK2
   772  000200                     __pdataBANK2:
   773                           	callstack 0
   774  000200                     _coef3:
   775                           	callstack 0
   776  000200                     	ds	36
   777  000224                     _coef4:
   778                           	callstack 0
   779  000224                     	ds	62
   780                           
   781                           	psect	cstackBANK1
   782  0001E4                     __pcstackBANK1:
   783                           	callstack 0
   784  0001E4                     ?___fltol:
   785                           	callstack 0
   786  0001E4                     ___fltol@f1:
   787                           	callstack 0
   788                           
   789                           ; 4 bytes @ 0x0
   790  0001E4                     	ds	4
   791  0001E8                     ??___fltol:
   792                           
   793                           ; 1 bytes @ 0x4
   794  0001E8                     	ds	4
   795  0001EC                     ___fltol@sign1:
   796                           	callstack 0
   797                           
   798                           ; 1 bytes @ 0x8
   799  0001EC                     	ds	1
   800  0001ED                     ___fltol@exp1:
   801                           	callstack 0
   802                           
   803                           ; 1 bytes @ 0x9
   804  0001ED                     	ds	1
   805  0001EE                     ?_multiplo:
   806                           	callstack 0
   807  0001EE                     multiplo@Ts:
   808                           	callstack 0
   809  0001EE                     initial_count@T:
   810                           	callstack 0
   811  0001EE                     uart_config@des_baud_rate:
   812                           	callstack 0
   813                           
   814                           ; 4 bytes @ 0xA
   815  0001EE                     	ds	2
   816  0001F0                     multiplo@des_Ts:
   817                           	callstack 0
   818                           
   819                           ; 2 bytes @ 0xC
   820  0001F0                     	ds	2
   821  0001F2                     uart_config@interrupt_ena:
   822                           	callstack 0
   823                           
   824                           ; 1 bytes @ 0xE
   825  0001F2                     	ds	1
   826  0001F3                     ??_uart_config:
   827                           
   828                           ; 1 bytes @ 0xF
   829  0001F3                     	ds	4
   830  0001F7                     uart_config@baud_rate:
   831                           	callstack 0
   832                           
   833                           ; 2 bytes @ 0x13
   834  0001F7                     	ds	2
   835                           
   836                           	psect	cstackBANK0
   837  0000D9                     __pcstackBANK0:
   838                           	callstack 0
   839  0000D9                     filtrar_fir_apuntadores@i:
   840                           	callstack 0
   841  0000D9                     ___fldiv@rem:
   842                           	callstack 0
   843                           
   844                           ; 4 bytes @ 0x0
   845  0000D9                     	ds	2
   846  0000DB                     _filtrar_fir_apuntadores$1591:
   847                           	callstack 0
   848                           
   849                           ; 2 bytes @ 0x2
   850  0000DB                     	ds	2
   851  0000DD                     ___fldiv@sign:
   852                           	callstack 0
   853                           
   854                           ; 1 bytes @ 0x4
   855  0000DD                     	ds	1
   856  0000DE                     ___fldiv@new_exp:
   857                           	callstack 0
   858                           
   859                           ; 2 bytes @ 0x5
   860  0000DE                     	ds	2
   861  0000E0                     ___fldiv@grs:
   862                           	callstack 0
   863                           
   864                           ; 4 bytes @ 0x7
   865  0000E0                     	ds	4
   866  0000E4                     ___fldiv@bexp:
   867                           	callstack 0
   868                           
   869                           ; 1 bytes @ 0xB
   870  0000E4                     	ds	1
   871  0000E5                     ___fldiv@aexp:
   872                           	callstack 0
   873                           
   874                           ; 1 bytes @ 0xC
   875  0000E5                     	ds	1
   876  0000E6                     ?___fladd:
   877                           	callstack 0
   878  0000E6                     ___fladd@b:
   879                           	callstack 0
   880                           
   881                           ; 4 bytes @ 0xD
   882  0000E6                     	ds	4
   883  0000EA                     ___fladd@a:
   884                           	callstack 0
   885                           
   886                           ; 4 bytes @ 0x11
   887  0000EA                     	ds	4
   888  0000EE                     ___fladd@signs:
   889                           	callstack 0
   890                           
   891                           ; 1 bytes @ 0x15
   892  0000EE                     	ds	1
   893  0000EF                     ___fladd@aexp:
   894                           	callstack 0
   895                           
   896                           ; 1 bytes @ 0x16
   897  0000EF                     	ds	1
   898  0000F0                     ___fladd@bexp:
   899                           	callstack 0
   900                           
   901                           ; 1 bytes @ 0x17
   902  0000F0                     	ds	1
   903  0000F1                     ___fladd@grs:
   904                           	callstack 0
   905                           
   906                           ; 1 bytes @ 0x18
   907  0000F1                     	ds	1
   908  0000F2                     ?___flsub:
   909                           	callstack 0
   910  0000F2                     ___flsub@b:
   911                           	callstack 0
   912                           
   913                           ; 4 bytes @ 0x19
   914  0000F2                     	ds	4
   915  0000F6                     ___flsub@a:
   916                           	callstack 0
   917                           
   918                           ; 4 bytes @ 0x1D
   919  0000F6                     	ds	4
   920                           
   921                           	psect	cstackCOMRAM
   922  000001                     __pcstackCOMRAM:
   923                           	callstack 0
   924  000001                     ?_read_adc:
   925                           	callstack 0
   926  000001                     start_conversion@channel:
   927                           	callstack 0
   928  000001                     uart_tx@data:
   929                           	callstack 0
   930                           
   931                           ; 1 bytes @ 0x0
   932  000001                     	ds	1
   933  000002                     ??_send_buffer:
   934                           
   935                           ; 1 bytes @ 0x1
   936  000002                     	ds	1
   937  000003                     ??_read_adc:
   938                           
   939                           ; 1 bytes @ 0x2
   940  000003                     	ds	2
   941  000005                     read_adc@result:
   942                           	callstack 0
   943                           
   944                           ; 2 bytes @ 0x4
   945  000005                     	ds	2
   946  000007                     read_n_adc@lecturas:
   947                           	callstack 0
   948                           
   949                           ; 2 bytes @ 0x6
   950  000007                     	ds	2
   951  000009                     read_n_adc@canal_actual:
   952                           	callstack 0
   953                           
   954                           ; 2 bytes @ 0x8
   955  000009                     	ds	2
   956  00000B                     read_n_adc@n_canales:
   957                           	callstack 0
   958                           
   959                           ; 1 bytes @ 0xA
   960  00000B                     	ds	1
   961  00000C                     ??_read_n_adc:
   962                           
   963                           ; 1 bytes @ 0xB
   964  00000C                     	ds	7
   965  000013                     ??_ISR:
   966                           
   967                           ; 1 bytes @ 0x12
   968  000013                     	ds	4
   969  000017                     ?___flmul:
   970                           	callstack 0
   971  000017                     ?___lmul:
   972                           	callstack 0
   973  000017                     ?___xxtofl:
   974                           	callstack 0
   975  000017                     adc_config@interrupt_ena:
   976                           	callstack 0
   977  000017                     SPI_transmit@lecturas:
   978                           	callstack 0
   979  000017                     bcd_2_hexascii@number:
   980                           	callstack 0
   981  000017                     send_array@array:
   982                           	callstack 0
   983  000017                     inicializar_filtro_fir@filtro:
   984                           	callstack 0
   985  000017                     ___lmul@multiplier:
   986                           	callstack 0
   987  000017                     ___flmul@b:
   988                           	callstack 0
   989  000017                     ___xxtofl@val:
   990                           	callstack 0
   991                           
   992                           ; 4 bytes @ 0x16
   993  000017                     	ds	2
   994  000019                     ??_send_array:
   995  000019                     ??_SPI_transmit:
   996  000019                     bcd_2_hexascii@digits_ascii:
   997                           	callstack 0
   998                           
   999                           ; 2 bytes @ 0x18
  1000  000019                     	ds	2
  1001  00001B                     ??___xxtofl:
  1002  00001B                     bcd_2_hexascii@desfase:
  1003                           	callstack 0
  1004  00001B                     ___lmul@multiplicand:
  1005                           	callstack 0
  1006  00001B                     ___flmul@a:
  1007                           	callstack 0
  1008                           
  1009                           ; 4 bytes @ 0x1A
  1010  00001B                     	ds	1
  1011  00001C                     ??_bcd_2_hexascii:
  1012  00001C                     send_array@i:
  1013                           	callstack 0
  1014                           
  1015                           ; 2 bytes @ 0x1B
  1016  00001C                     	ds	3
  1017  00001F                     ??___flmul:
  1018  00001F                     bcd_2_hexascii@digit:
  1019                           	callstack 0
  1020  00001F                     ___xxtofl@sign:
  1021                           	callstack 0
  1022  00001F                     ___lmul@product:
  1023                           	callstack 0
  1024                           
  1025                           ; 4 bytes @ 0x1E
  1026  00001F                     	ds	1
  1027  000020                     bcd_2_hexascii@i:
  1028                           	callstack 0
  1029  000020                     ___xxtofl@exp:
  1030                           	callstack 0
  1031                           
  1032                           ; 1 bytes @ 0x1F
  1033  000020                     	ds	1
  1034  000021                     ___xxtofl@arg:
  1035                           	callstack 0
  1036                           
  1037                           ; 4 bytes @ 0x20
  1038  000021                     	ds	2
  1039  000023                     ?_filtrar_fir_apuntadores:
  1040                           	callstack 0
  1041  000023                     ___flmul@sign:
  1042                           	callstack 0
  1043  000023                     filtrar_fir_apuntadores@in_filtro:
  1044                           	callstack 0
  1045                           
  1046                           ; 2 bytes @ 0x22
  1047  000023                     	ds	1
  1048  000024                     ___flmul@grs:
  1049                           	callstack 0
  1050                           
  1051                           ; 4 bytes @ 0x23
  1052  000024                     	ds	1
  1053  000025                     ?___fldiv:
  1054                           	callstack 0
  1055  000025                     filtrar_fir_apuntadores@coeficientes:
  1056                           	callstack 0
  1057  000025                     ___fldiv@b:
  1058                           	callstack 0
  1059                           
  1060                           ; 4 bytes @ 0x24
  1061  000025                     	ds	2
  1062  000027                     filtrar_fir_apuntadores@orden_filtro:
  1063                           	callstack 0
  1064                           
  1065                           ; 2 bytes @ 0x26
  1066  000027                     	ds	1
  1067  000028                     ___flmul@aexp:
  1068                           	callstack 0
  1069                           
  1070                           ; 1 bytes @ 0x27
  1071  000028                     	ds	1
  1072  000029                     ___flmul@bexp:
  1073                           	callstack 0
  1074  000029                     filtrar_fir_apuntadores@x:
  1075                           	callstack 0
  1076  000029                     ___fldiv@a:
  1077                           	callstack 0
  1078                           
  1079                           ; 4 bytes @ 0x28
  1080  000029                     	ds	1
  1081  00002A                     ___flmul@prod:
  1082                           	callstack 0
  1083                           
  1084                           ; 4 bytes @ 0x29
  1085  00002A                     	ds	1
  1086  00002B                     filtrar_fir_apuntadores@filtro:
  1087                           	callstack 0
  1088                           
  1089                           ; 2 bytes @ 0x2A
  1090  00002B                     	ds	2
  1091  00002D                     ??_filtrar_fir_apuntadores:
  1092  00002D                     ??___fldiv:
  1093                           
  1094                           ; 1 bytes @ 0x2C
  1095  00002D                     	ds	1
  1096  00002E                     ___flmul@temp:
  1097                           	callstack 0
  1098                           
  1099                           ; 2 bytes @ 0x2D
  1100  00002E                     	ds	3
  1101  000031                     ??___fladd:
  1102                           
  1103                           ; 1 bytes @ 0x30
  1104  000031                     	ds	4
  1105  000035                     
  1106                           ; 1 bytes @ 0x34
  1107 ;;
  1108 ;;Main: autosize = 0, tempsize = 0, incstack = 0, save=0
  1109 ;;
  1110 ;; *************** function _main *****************
  1111 ;; Defined at:
  1112 ;;		line 168 in file "main.c"
  1113 ;; Parameters:    Size  Location     Type
  1114 ;;		None
  1115 ;; Auto vars:     Size  Location     Type
  1116 ;;		None
  1117 ;; Return value:  Size  Location     Type
  1118 ;;                  1    wreg      void 
  1119 ;; Registers used:
  1120 ;;		wreg, fsr1l, fsr1h, fsr2l, fsr2h, status,2, status,0, prodl, prodh, cstack
  1121 ;; Tracked objects:
  1122 ;;		On entry : 0/0
  1123 ;;		On exit  : 0/0
  1124 ;;		Unchanged: 0/0
  1125 ;; Data sizes:     COMRAM   BANK0   BANK1   BANK2   BANK3   BANK4   BANK5   BANK6   BANK7   BANK8   BANK9  BANK10  BANK1
      +1  BANK12  BANK13  BANK14  BANK15  BANK16  BANK17  BANK18  BANK19  BANK20  BANK21  BANK22  BANK23  BANK24  BANK25  BANK2
      +6  BANK27  BANK28  BANK29  BANK30  BANK31
  1126 ;;      Params:         0       0       0       0       0       0       0       0       0       0       0       0       
      +0       0       0       0       0       0       0       0       0       0       0       0       0       0       0       
      +0       0       0       0       0       0
  1127 ;;      Locals:         0       0       0       0       0       0       0       0       0       0       0       0       
      +0       0       0       0       0       0       0       0       0       0       0       0       0       0       0       
      +0       0       0       0       0       0
  1128 ;;      Temps:          0       0       0       0       0       0       0       0       0       0       0       0       
      +0       0       0       0       0       0       0       0       0       0       0       0       0       0       0       
      +0       0       0       0       0       0
  1129 ;;      Totals:         0       0       0       0       0       0       0       0       0       0       0       0       
      +0       0       0       0       0       0       0       0       0       0       0       0       0       0       0       
      +0       0       0       0       0       0
  1130 ;;Total ram usage:        0 bytes
  1131 ;; Hardware stack levels required when called:    7
  1132 ;; This function calls:
  1133 ;;		_SPI1_Initialize
  1134 ;;		_SPI_transmit
  1135 ;;		_SYSTEM_Initialize
  1136 ;;		_adc_config
  1137 ;;		_bcd_2_hexascii
  1138 ;;		_filtrar_fir_apuntadores
  1139 ;;		_inicializar_filtro_fir
  1140 ;;		_multiplo
  1141 ;;		_send_array
  1142 ;;		_timer0_config
  1143 ;;		_uart_config
  1144 ;;		_voltage_ref_config
  1145 ;; This function is called by:
  1146 ;;		Startup code after reset
  1147 ;; This function uses a non-reentrant model
  1148 ;;
  1149                           
  1150                           	psect	text0
  1151  003152                     __ptext0:
  1152                           	callstack 0
  1153  003152                     _main:
  1154                           	callstack 24
  1155  003152                     
  1156                           ;main.c: 171:     SYSTEM_Initialize();
  1157  003152  ECAD  F01E         	call	_SYSTEM_Initialize	;wreg free
  1158  003156                     
  1159                           ;main.c: 172:     uart_config(256000, 1);
  1160  003156  0E00               	movlw	0
  1161  003158  0101               	movlb	1	; () banked
  1162  00315A  6FEE               	movwf	uart_config@des_baud_rate& (0+255),b
  1163  00315C  0EE8               	movlw	232
  1164  00315E  6FEF               	movwf	(uart_config@des_baud_rate+1)& (0+255),b
  1165  003160  0E03               	movlw	3
  1166  003162  6FF0               	movwf	(uart_config@des_baud_rate+2)& (0+255),b
  1167  003164  0E00               	movlw	0
  1168  003166  6FF1               	movwf	(uart_config@des_baud_rate+3)& (0+255),b
  1169  003168  0E01               	movlw	1
  1170  00316A  6FF2               	movwf	uart_config@interrupt_ena& (0+255),b
  1171  00316C  EC1E  F01A         	call	_uart_config	;wreg free
  1172  003170                     
  1173                           ;main.c: 173:     timer0_config();
  1174  003170  ECA7  F01D         	call	_timer0_config	;wreg free
  1175  003174                     
  1176                           ;main.c: 174:     voltage_ref_config();
  1177  003174  ECA4  F01E         	call	_voltage_ref_config	;wreg free
  1178  003178                     
  1179                           ;main.c: 175:     adc_config(1);
  1180  003178  0E01               	movlw	1
  1181  00317A  ECD2  F01D         	call	_adc_config
  1182  00317E                     
  1183                           ;main.c: 176:     SPI1_Initialize();
  1184  00317E  EC68  F01E         	call	_SPI1_Initialize	;wreg free
  1185  003182                     
  1186                           ;main.c: 178:     k = multiplo(&Ts, &des_Ts);
  1187  003182  0EA3               	movlw	low _Ts
  1188  003184  0101               	movlb	1	; () banked
  1189  003186  6FEE               	movwf	multiplo@Ts& (0+255),b
  1190  003188  0E00               	movlw	high _Ts
  1191  00318A  6FEF               	movwf	(multiplo@Ts+1)& (0+255),b
  1192  00318C  0E9F               	movlw	low _des_Ts
  1193  00318E  6FF0               	movwf	multiplo@des_Ts& (0+255),b
  1194  003190  0E00               	movlw	high _des_Ts
  1195  003192  6FF1               	movwf	(multiplo@des_Ts+1)& (0+255),b
  1196  003194  EC79  F01C         	call	_multiplo	;wreg free
  1197  003198  C1EE  F03B         	movff	?_multiplo,_k
  1198  00319C  C1EF  F03C         	movff	?_multiplo+1,_k+1
  1199  0031A0                     
  1200                           ;main.c: 179:     LATEbits.LE0 = 1;
  1201  0031A0  80BE               	bsf	190,0,c	;volatile
  1202  0031A2                     
  1203                           ;main.c: 180:     LATBbits.LB4 = 1;
  1204  0031A2  88BB               	bsf	187,4,c	;volatile
  1205  0031A4                     
  1206                           ;main.c: 182:     inicializar_filtro_fir(&filtro_fir_1);
  1207  0031A4  0EC9               	movlw	low _filtro_fir_1
  1208  0031A6  6E17               	movwf	inicializar_filtro_fir@filtro^0,c
  1209  0031A8  0E00               	movlw	high _filtro_fir_1
  1210  0031AA  6E18               	movwf	(inicializar_filtro_fir@filtro+1)^0,c
  1211  0031AC  EC3F  F01E         	call	_inicializar_filtro_fir	;wreg free
  1212  0031B0                     
  1213                           ;main.c: 183:     inicializar_filtro_fir(&filtro_fir_2);
  1214  0031B0  0EC1               	movlw	low _filtro_fir_2
  1215  0031B2  6E17               	movwf	inicializar_filtro_fir@filtro^0,c
  1216  0031B4  0E00               	movlw	high _filtro_fir_2
  1217  0031B6  6E18               	movwf	(inicializar_filtro_fir@filtro+1)^0,c
  1218  0031B8  EC3F  F01E         	call	_inicializar_filtro_fir	;wreg free
  1219  0031BC                     l3733:
  1220                           
  1221                           ;main.c: 186:     {;main.c: 192:         if(lectura_done){
  1222  0031BC  0100               	movlb	0	; () banked
  1223  0031BE  51C0               	movf	_lectura_done& (0+255),w,b
  1224  0031C0  B4D8               	btfsc	status,2,c
  1225  0031C2  EFE5  F018         	goto	u3411
  1226  0031C6  EFE7  F018         	goto	u3410
  1227  0031CA                     u3411:
  1228  0031CA  EFDE  F018         	goto	l3733
  1229  0031CE                     u3410:
  1230  0031CE                     
  1231                           ; BSR set to: 0
  1232                           ;main.c: 193:             lectura_done = 0;
  1233  0031CE  0E00               	movlw	0
  1234  0031D0  6FC0               	movwf	_lectura_done& (0+255),b
  1235  0031D2                     
  1236                           ; BSR set to: 0
  1237                           ;main.c: 194:             LATDbits.LD0=1;
  1238  0031D2  80BD               	bsf	189,0,c	;volatile
  1239  0031D4                     
  1240                           ; BSR set to: 0
  1241                           ;main.c: 195:             lecturas_filtradas[1] = (uint16_t)filtrar_fir_apuntadores(lect
      +                          uras[1], coef4, n4, x1, &filtro_fir_1);
  1242  0031D4  C0D7  F023         	movff	_lecturas+2,filtrar_fir_apuntadores@in_filtro
  1243  0031D8  C0D8  F024         	movff	_lecturas+3,filtrar_fir_apuntadores@in_filtro+1
  1244  0031DC  0E24               	movlw	low _coef4
  1245  0031DE  6E25               	movwf	filtrar_fir_apuntadores@coeficientes^0,c
  1246  0031E0  0E02               	movlw	high _coef4
  1247  0031E2  6E26               	movwf	(filtrar_fir_apuntadores@coeficientes+1)^0,c
  1248  0031E4  0E00               	movlw	0
  1249  0031E6  6E28               	movwf	(filtrar_fir_apuntadores@orden_filtro+1)^0,c
  1250  0031E8  0E1F               	movlw	31
  1251  0031EA  6E27               	movwf	filtrar_fir_apuntadores@orden_filtro^0,c
  1252  0031EC  0EC0               	movlw	low _x1
  1253  0031EE  6E29               	movwf	filtrar_fir_apuntadores@x^0,c
  1254  0031F0  0E01               	movlw	high _x1
  1255  0031F2  6E2A               	movwf	(filtrar_fir_apuntadores@x+1)^0,c
  1256  0031F4  0EC9               	movlw	low _filtro_fir_1
  1257  0031F6  6E2B               	movwf	filtrar_fir_apuntadores@filtro^0,c
  1258  0031F8  0E00               	movlw	high _filtro_fir_1
  1259  0031FA  6E2C               	movwf	(filtrar_fir_apuntadores@filtro+1)^0,c
  1260  0031FC  EC5A  F016         	call	_filtrar_fir_apuntadores	;wreg free
  1261  003200  C023  F0D3         	movff	?_filtrar_fir_apuntadores,_lecturas_filtradas+2
  1262  003204  C024  F0D4         	movff	?_filtrar_fir_apuntadores+1,_lecturas_filtradas+3
  1263  003208                     
  1264                           ;main.c: 199:             LATDbits.LD0=0;
  1265  003208  90BD               	bcf	189,0,c	;volatile
  1266  00320A                     
  1267                           ;main.c: 200:             lecturas_filtradas[0] = lecturas[0];
  1268  00320A  C0D5  F0D1         	movff	_lecturas,_lecturas_filtradas
  1269  00320E  C0D6  F0D2         	movff	_lecturas+1,_lecturas_filtradas+1
  1270  003212                     
  1271                           ;main.c: 202:             SPI_transmit(lecturas_filtradas);
  1272  003212  0ED1               	movlw	low _lecturas_filtradas
  1273  003214  6E17               	movwf	SPI_transmit@lecturas^0,c
  1274  003216  0E00               	movlw	high _lecturas_filtradas
  1275  003218  6E18               	movwf	(SPI_transmit@lecturas+1)^0,c
  1276  00321A  ECE2  F01A         	call	_SPI_transmit	;wreg free
  1277  00321E                     
  1278                           ;main.c: 204:             bcd_2_hexascii(lecturas_filtradas[0], lecturas_ascii, 0);
  1279  00321E  C0D1  F017         	movff	_lecturas_filtradas,bcd_2_hexascii@number
  1280  003222  C0D2  F018         	movff	_lecturas_filtradas+1,bcd_2_hexascii@number+1
  1281  003226  0E96               	movlw	low _lecturas_ascii
  1282  003228  6E19               	movwf	bcd_2_hexascii@digits_ascii^0,c
  1283  00322A  0E00               	movlw	high _lecturas_ascii
  1284  00322C  6E1A               	movwf	(bcd_2_hexascii@digits_ascii+1)^0,c
  1285  00322E  0E00               	movlw	0
  1286  003230  6E1B               	movwf	bcd_2_hexascii@desfase^0,c
  1287  003232  EC2E  F01C         	call	_bcd_2_hexascii	;wreg free
  1288  003236                     
  1289                           ;main.c: 205:             bcd_2_hexascii(lecturas_filtradas[1], lecturas_ascii, 4);
  1290  003236  C0D3  F017         	movff	_lecturas_filtradas+2,bcd_2_hexascii@number
  1291  00323A  C0D4  F018         	movff	_lecturas_filtradas+3,bcd_2_hexascii@number+1
  1292  00323E  0E96               	movlw	low _lecturas_ascii
  1293  003240  6E19               	movwf	bcd_2_hexascii@digits_ascii^0,c
  1294  003242  0E00               	movlw	high _lecturas_ascii
  1295  003244  6E1A               	movwf	(bcd_2_hexascii@digits_ascii+1)^0,c
  1296  003246  0E04               	movlw	4
  1297  003248  6E1B               	movwf	bcd_2_hexascii@desfase^0,c
  1298  00324A  EC2E  F01C         	call	_bcd_2_hexascii	;wreg free
  1299  00324E                     
  1300                           ;main.c: 206:             send_array(lecturas_ascii);
  1301  00324E  0E96               	movlw	low _lecturas_ascii
  1302  003250  6E17               	movwf	send_array@array^0,c
  1303  003252  0E00               	movlw	high _lecturas_ascii
  1304  003254  6E18               	movwf	(send_array@array+1)^0,c
  1305  003256  EC7B  F01D         	call	_send_array	;wreg free
  1306  00325A  EFDE  F018         	goto	l3733
  1307  00325E  EF0D  F000         	goto	start
  1308  003262                     __end_of_main:
  1309                           	callstack 0
  1310                           
  1311 ;; *************** function _voltage_ref_config *****************
  1312 ;; Defined at:
  1313 ;;		line 5 in file "adc.c"
  1314 ;; Parameters:    Size  Location     Type
  1315 ;;		None
  1316 ;; Auto vars:     Size  Location     Type
  1317 ;;		None
  1318 ;; Return value:  Size  Location     Type
  1319 ;;                  1    wreg      void 
  1320 ;; Registers used:
  1321 ;;		wreg, status,2
  1322 ;; Tracked objects:
  1323 ;;		On entry : 0/0
  1324 ;;		On exit  : 0/0
  1325 ;;		Unchanged: 0/0
  1326 ;; Data sizes:     COMRAM   BANK0   BANK1   BANK2   BANK3   BANK4   BANK5   BANK6   BANK7   BANK8   BANK9  BANK10  BANK1
      +1  BANK12  BANK13  BANK14  BANK15  BANK16  BANK17  BANK18  BANK19  BANK20  BANK21  BANK22  BANK23  BANK24  BANK25  BANK2
      +6  BANK27  BANK28  BANK29  BANK30  BANK31
  1327 ;;      Params:         0       0       0       0       0       0       0       0       0       0       0       0       
      +0       0       0       0       0       0       0       0       0       0       0       0       0       0       0       
      +0       0       0       0       0       0
  1328 ;;      Locals:         0       0       0       0       0       0       0       0       0       0       0       0       
      +0       0       0       0       0       0       0       0       0       0       0       0       0       0       0       
      +0       0       0       0       0       0
  1329 ;;      Temps:          0       0       0       0       0       0       0       0       0       0       0       0       
      +0       0       0       0       0       0       0       0       0       0       0       0       0       0       0       
      +0       0       0       0       0       0
  1330 ;;      Totals:         0       0       0       0       0       0       0       0       0       0       0       0       
      +0       0       0       0       0       0       0       0       0       0       0       0       0       0       0       
      +0       0       0       0       0       0
  1331 ;;Total ram usage:        0 bytes
  1332 ;; Hardware stack levels used:    1
  1333 ;; Hardware stack levels required when called:    3
  1334 ;; This function calls:
  1335 ;;		Nothing
  1336 ;; This function is called by:
  1337 ;;		_main
  1338 ;; This function uses a non-reentrant model
  1339 ;;
  1340                           
  1341                           	psect	text1
  1342  003D48                     __ptext1:
  1343                           	callstack 0
  1344  003D48                     _voltage_ref_config:
  1345                           	callstack 27
  1346  003D48                     
  1347                           ;adc.c: 6:     INTCON0bits.GIE = 0;
  1348  003D48  9ED2               	bcf	210,7,c	;volatile
  1349                           
  1350                           ;adc.c: 8:     FVRCONbits.FVREN = 1;
  1351  003D4A  013E               	movlb	62	; () banked
  1352  003D4C  8FC1               	bsf	193,7,b	;volatile
  1353  003D4E                     
  1354                           ; BSR set to: 62
  1355                           ;adc.c: 9:     FVRCONbits.ADFVR = 0b11;
  1356  003D4E  0E03               	movlw	3
  1357  003D50  13C1               	iorwf	193,f,b	;volatile
  1358                           
  1359                           ;adc.c: 10:     FVRCONbits.CDAFVR = 0b11;
  1360  003D52  0E0C               	movlw	12
  1361  003D54  13C1               	iorwf	193,f,b	;volatile
  1362  003D56                     
  1363                           ; BSR set to: 62
  1364                           ;adc.c: 12:     INTCON0bits.GIE = 1;
  1365  003D56  8ED2               	bsf	210,7,c	;volatile
  1366  003D58                     
  1367                           ; BSR set to: 62
  1368  003D58  0012               	return		;funcret
  1369  003D5A                     __end_of_voltage_ref_config:
  1370                           	callstack 0
  1371                           
  1372 ;; *************** function _uart_config *****************
  1373 ;; Defined at:
  1374 ;;		line 55 in file "uart.c"
  1375 ;; Parameters:    Size  Location     Type
  1376 ;;  des_baud_rat    4   10[BANK1 ] unsigned long 
  1377 ;;  interrupt_en    1   14[BANK1 ] unsigned char 
  1378 ;; Auto vars:     Size  Location     Type
  1379 ;;  baud_rate       2   19[BANK1 ] unsigned short 
  1380 ;; Return value:  Size  Location     Type
  1381 ;;                  1    wreg      void 
  1382 ;; Registers used:
  1383 ;;		wreg, status,2, status,0, cstack
  1384 ;; Tracked objects:
  1385 ;;		On entry : 0/0
  1386 ;;		On exit  : 0/0
  1387 ;;		Unchanged: 0/0
  1388 ;; Data sizes:     COMRAM   BANK0   BANK1   BANK2   BANK3   BANK4   BANK5   BANK6   BANK7   BANK8   BANK9  BANK10  BANK1
      +1  BANK12  BANK13  BANK14  BANK15  BANK16  BANK17  BANK18  BANK19  BANK20  BANK21  BANK22  BANK23  BANK24  BANK25  BANK2
      +6  BANK27  BANK28  BANK29  BANK30  BANK31
  1389 ;;      Params:         0       0       5       0       0       0       0       0       0       0       0       0       
      +0       0       0       0       0       0       0       0       0       0       0       0       0       0       0       
      +0       0       0       0       0       0
  1390 ;;      Locals:         0       0       2       0       0       0       0       0       0       0       0       0       
      +0       0       0       0       0       0       0       0       0       0       0       0       0       0       0       
      +0       0       0       0       0       0
  1391 ;;      Temps:          0       0       4       0       0       0       0       0       0       0       0       0       
      +0       0       0       0       0       0       0       0       0       0       0       0       0       0       0       
      +0       0       0       0       0       0
  1392 ;;      Totals:         0       0      11       0       0       0       0       0       0       0       0       0       
      +0       0       0       0       0       0       0       0       0       0       0       0       0       0       0       
      +0       0       0       0       0       0
  1393 ;;Total ram usage:       11 bytes
  1394 ;; Hardware stack levels used:    1
  1395 ;; Hardware stack levels required when called:    4
  1396 ;; This function calls:
  1397 ;;		___fladd
  1398 ;;		___fldiv
  1399 ;;		___fltol
  1400 ;;		___xxtofl
  1401 ;; This function is called by:
  1402 ;;		_main
  1403 ;; This function uses a non-reentrant model
  1404 ;;
  1405                           
  1406                           	psect	text2
  1407  00343C                     __ptext2:
  1408                           	callstack 0
  1409  00343C                     _uart_config:
  1410                           	callstack 26
  1411  00343C                     
  1412                           ;uart.c: 56:     INTCON0bits.GIE = 0;
  1413  00343C  9ED2               	bcf	210,7,c	;volatile
  1414  00343E                     
  1415                           ;uart.c: 59:     uint16_t baud_rate = clk_freq/(des_baud_rate*4) - 1;
  1416  00343E  0E00               	movlw	0
  1417  003440  0100               	movlb	0	; () banked
  1418  003442  6FEA               	movwf	___fladd@a& (0+255),b
  1419  003444  0E00               	movlw	0
  1420  003446  6FEB               	movwf	(___fladd@a+1)& (0+255),b
  1421  003448  0E80               	movlw	128
  1422  00344A  6FEC               	movwf	(___fladd@a+2)& (0+255),b
  1423  00344C  0EBF               	movlw	191
  1424  00344E  6FED               	movwf	(___fladd@a+3)& (0+255),b
  1425  003450  C1EE  F1F3         	movff	uart_config@des_baud_rate,??_uart_config
  1426  003454  C1EF  F1F4         	movff	uart_config@des_baud_rate+1,??_uart_config+1
  1427  003458  C1F0  F1F5         	movff	uart_config@des_baud_rate+2,??_uart_config+2
  1428  00345C  C1F1  F1F6         	movff	uart_config@des_baud_rate+3,??_uart_config+3
  1429  003460  0E02               	movlw	2
  1430  003462                     u3365:
  1431  003462  90D8               	bcf	status,0,c
  1432  003464  0101               	movlb	1	; () banked
  1433  003466  37F3               	rlcf	??_uart_config& (0+255),f,b
  1434  003468  37F4               	rlcf	(??_uart_config+1)& (0+255),f,b
  1435  00346A  37F5               	rlcf	(??_uart_config+2)& (0+255),f,b
  1436  00346C  37F6               	rlcf	(??_uart_config+3)& (0+255),f,b
  1437  00346E  2EE8               	decfsz	wreg,f,c
  1438  003470  EF31  F01A         	goto	u3365
  1439  003474  C1F3  F017         	movff	??_uart_config,___xxtofl@val
  1440  003478  C1F4  F018         	movff	??_uart_config+1,___xxtofl@val+1
  1441  00347C  C1F5  F019         	movff	??_uart_config+2,___xxtofl@val+2
  1442  003480  C1F6  F01A         	movff	??_uart_config+3,___xxtofl@val+3
  1443  003484  0E00               	movlw	0
  1444  003486  ECCF  F017         	call	___xxtofl
  1445  00348A  C017  F029         	movff	?___xxtofl,___fldiv@a
  1446  00348E  C018  F02A         	movff	?___xxtofl+1,___fldiv@a+1
  1447  003492  C019  F02B         	movff	?___xxtofl+2,___fldiv@a+2
  1448  003496  C01A  F02C         	movff	?___xxtofl+3,___fldiv@a+3
  1449  00349A  0E00               	movlw	0
  1450  00349C  6E25               	movwf	___fldiv@b^0,c
  1451  00349E  0E24               	movlw	36
  1452  0034A0  6E26               	movwf	(___fldiv@b+1)^0,c
  1453  0034A2  0E74               	movlw	116
  1454  0034A4  6E27               	movwf	(___fldiv@b+2)^0,c
  1455  0034A6  0E4C               	movlw	76
  1456  0034A8  6E28               	movwf	(___fldiv@b+3)^0,c
  1457  0034AA  EC8C  F014         	call	___fldiv	;wreg free
  1458  0034AE  C025  F0E6         	movff	?___fldiv,___fladd@b
  1459  0034B2  C026  F0E7         	movff	?___fldiv+1,___fladd@b+1
  1460  0034B6  C027  F0E8         	movff	?___fldiv+2,___fladd@b+2
  1461  0034BA  C028  F0E9         	movff	?___fldiv+3,___fladd@b+3
  1462  0034BE  EC04  F010         	call	___fladd	;wreg free
  1463  0034C2  C0E6  F1E4         	movff	?___fladd,___fltol@f1
  1464  0034C6  C0E7  F1E5         	movff	?___fladd+1,___fltol@f1+1
  1465  0034CA  C0E8  F1E6         	movff	?___fladd+2,___fltol@f1+2
  1466  0034CE  C0E9  F1E7         	movff	?___fladd+3,___fltol@f1+3
  1467  0034D2  EC31  F019         	call	___fltol	;wreg free
  1468  0034D6  C1E4  F1F7         	movff	?___fltol,uart_config@baud_rate
  1469  0034DA  C1E5  F1F8         	movff	?___fltol+1,uart_config@baud_rate+1
  1470  0034DE                     
  1471                           ;uart.c: 60:     U1BRGH = baud_rate>>8;
  1472  0034DE  0101               	movlb	1	; () banked
  1473  0034E0  51F8               	movf	(uart_config@baud_rate+1)& (0+255),w,b
  1474  0034E2  013D               	movlb	61	; () banked
  1475  0034E4  6FF6               	movwf	246,b	;volatile
  1476  0034E6                     
  1477                           ; BSR set to: 61
  1478                           ;uart.c: 61:     U1BRGL = baud_rate;
  1479  0034E6  0060  F7DF  FDF5   	movff	uart_config@baud_rate,15861	;volatile
  1480  0034EC                     
  1481                           ; BSR set to: 61
  1482                           ;uart.c: 63:     U1CON0bits.BRGS = 1;
  1483  0034EC  8FF2               	bsf	242,7,b	;volatile
  1484  0034EE                     
  1485                           ; BSR set to: 61
  1486                           ;uart.c: 64:     U1CON0bits.MODE = 0b0000;
  1487  0034EE  0EF0               	movlw	-16
  1488  0034F0  17F2               	andwf	242,f,b	;volatile
  1489  0034F2                     
  1490                           ; BSR set to: 61
  1491                           ;uart.c: 65:     U1RXPPS = 0b10111;
  1492  0034F2  0E17               	movlw	23
  1493  0034F4  013A               	movlb	58	; () banked
  1494  0034F6  6FE5               	movwf	229,b	;volatile
  1495  0034F8                     
  1496                           ; BSR set to: 58
  1497                           ;uart.c: 66:     RC6PPS = 0b010011;
  1498  0034F8  0E13               	movlw	19
  1499  0034FA  6F16               	movwf	22,b	;volatile
  1500  0034FC                     
  1501                           ; BSR set to: 58
  1502                           ;uart.c: 67:     U1CON1bits.ON = 1;
  1503  0034FC  013D               	movlb	61	; () banked
  1504  0034FE  8FF3               	bsf	243,7,b	;volatile
  1505  003500                     
  1506                           ; BSR set to: 61
  1507                           ;uart.c: 69:     PIE3bits.U1TXIE = 1;
  1508  003500  0139               	movlb	57	; () banked
  1509  003502  8993               	bsf	147,4,b	;volatile
  1510  003504                     
  1511                           ; BSR set to: 57
  1512                           ;uart.c: 70:     PIE3bits.U1RXIE = 1;
  1513  003504  8793               	bsf	147,3,b	;volatile
  1514  003506                     
  1515                           ; BSR set to: 57
  1516                           ;uart.c: 71:     U1CON0bits.RXEN = 1;
  1517  003506  013D               	movlb	61	; () banked
  1518  003508  89F2               	bsf	242,4,b	;volatile
  1519  00350A                     
  1520                           ; BSR set to: 61
  1521                           ;uart.c: 73:     INTCON0bits.GIE = 1;
  1522  00350A  8ED2               	bsf	210,7,c	;volatile
  1523  00350C                     
  1524                           ; BSR set to: 61
  1525  00350C  0012               	return		;funcret
  1526  00350E                     __end_of_uart_config:
  1527                           	callstack 0
  1528                           
  1529 ;; *************** function ___xxtofl *****************
  1530 ;; Defined at:
  1531 ;;		line 10 in file "C:\Program Files\Microchip\xc8\v2.31\pic\sources\c99\common\xxtofl.c"
  1532 ;; Parameters:    Size  Location     Type
  1533 ;;  sign            1    wreg     unsigned char 
  1534 ;;  val             4   22[COMRAM] long 
  1535 ;; Auto vars:     Size  Location     Type
  1536 ;;  sign            1   30[COMRAM] unsigned char 
  1537 ;;  arg             4   32[COMRAM] unsigned long 
  1538 ;;  exp             1   31[COMRAM] unsigned char 
  1539 ;; Return value:  Size  Location     Type
  1540 ;;                  4   22[COMRAM] unsigned char 
  1541 ;; Registers used:
  1542 ;;		wreg, status,2, status,0
  1543 ;; Tracked objects:
  1544 ;;		On entry : 0/0
  1545 ;;		On exit  : 0/0
  1546 ;;		Unchanged: 0/0
  1547 ;; Data sizes:     COMRAM   BANK0   BANK1   BANK2   BANK3   BANK4   BANK5   BANK6   BANK7   BANK8   BANK9  BANK10  BANK1
      +1  BANK12  BANK13  BANK14  BANK15  BANK16  BANK17  BANK18  BANK19  BANK20  BANK21  BANK22  BANK23  BANK24  BANK25  BANK2
      +6  BANK27  BANK28  BANK29  BANK30  BANK31
  1548 ;;      Params:         4       0       0       0       0       0       0       0       0       0       0       0       
      +0       0       0       0       0       0       0       0       0       0       0       0       0       0       0       
      +0       0       0       0       0       0
  1549 ;;      Locals:         6       0       0       0       0       0       0       0       0       0       0       0       
      +0       0       0       0       0       0       0       0       0       0       0       0       0       0       0       
      +0       0       0       0       0       0
  1550 ;;      Temps:          4       0       0       0       0       0       0       0       0       0       0       0       
      +0       0       0       0       0       0       0       0       0       0       0       0       0       0       0       
      +0       0       0       0       0       0
  1551 ;;      Totals:        14       0       0       0       0       0       0       0       0       0       0       0       
      +0       0       0       0       0       0       0       0       0       0       0       0       0       0       0       
      +0       0       0       0       0       0
  1552 ;;Total ram usage:       14 bytes
  1553 ;; Hardware stack levels used:    1
  1554 ;; Hardware stack levels required when called:    3
  1555 ;; This function calls:
  1556 ;;		Nothing
  1557 ;; This function is called by:
  1558 ;;		_timer0_config
  1559 ;;		_uart_config
  1560 ;;		_scale_read
  1561 ;;		_filtrar_iir
  1562 ;; This function uses a non-reentrant model
  1563 ;;
  1564                           
  1565                           	psect	text3
  1566  002F9E                     __ptext3:
  1567                           	callstack 0
  1568  002F9E                     ___xxtofl:
  1569                           	callstack 26
  1570                           
  1571                           ; BSR set to: 61
  1572                           ;incstack = 0
  1573                           ;___xxtofl@sign stored from wreg
  1574  002F9E  6E1F               	movwf	___xxtofl@sign^0,c
  1575  002FA0  501F               	movf	___xxtofl@sign^0,w,c
  1576  002FA2  B4D8               	btfsc	status,2,c
  1577  002FA4  EFD6  F017         	goto	u3261
  1578  002FA8  EFD8  F017         	goto	u3260
  1579  002FAC                     u3261:
  1580  002FAC  EFFA  F017         	goto	l1233
  1581  002FB0                     u3260:
  1582  002FB0  BE1A               	btfsc	(___xxtofl@val+3)^0,7,c
  1583  002FB2  EFDF  F017         	goto	u3270
  1584  002FB6  EFDD  F017         	goto	u3271
  1585  002FBA                     u3271:
  1586  002FBA  EFFA  F017         	goto	l1233
  1587  002FBE                     u3270:
  1588  002FBE  C017  F01B         	movff	___xxtofl@val,??___xxtofl
  1589  002FC2  C018  F01C         	movff	___xxtofl@val+1,??___xxtofl+1
  1590  002FC6  C019  F01D         	movff	___xxtofl@val+2,??___xxtofl+2
  1591  002FCA  C01A  F01E         	movff	___xxtofl@val+3,??___xxtofl+3
  1592  002FCE  1E1B               	comf	??___xxtofl^0,f,c
  1593  002FD0  1E1C               	comf	(??___xxtofl+1)^0,f,c
  1594  002FD2  1E1D               	comf	(??___xxtofl+2)^0,f,c
  1595  002FD4  1E1E               	comf	(??___xxtofl+3)^0,f,c
  1596  002FD6  2A1B               	incf	??___xxtofl^0,f,c
  1597  002FD8  0E00               	movlw	0
  1598  002FDA  221C               	addwfc	(??___xxtofl+1)^0,f,c
  1599  002FDC  221D               	addwfc	(??___xxtofl+2)^0,f,c
  1600  002FDE  221E               	addwfc	(??___xxtofl+3)^0,f,c
  1601  002FE0  C01B  F021         	movff	??___xxtofl,___xxtofl@arg
  1602  002FE4  C01C  F022         	movff	??___xxtofl+1,___xxtofl@arg+1
  1603  002FE8  C01D  F023         	movff	??___xxtofl+2,___xxtofl@arg+2
  1604  002FEC  C01E  F024         	movff	??___xxtofl+3,___xxtofl@arg+3
  1605  002FF0  EF02  F018         	goto	l3577
  1606  002FF4                     l1233:
  1607  002FF4  C017  F021         	movff	___xxtofl@val,___xxtofl@arg
  1608  002FF8  C018  F022         	movff	___xxtofl@val+1,___xxtofl@arg+1
  1609  002FFC  C019  F023         	movff	___xxtofl@val+2,___xxtofl@arg+2
  1610  003000  C01A  F024         	movff	___xxtofl@val+3,___xxtofl@arg+3
  1611  003004                     l3577:
  1612  003004  5017               	movf	___xxtofl@val^0,w,c
  1613  003006  1018               	iorwf	(___xxtofl@val+1)^0,w,c
  1614  003008  1019               	iorwf	(___xxtofl@val+2)^0,w,c
  1615  00300A  101A               	iorwf	(___xxtofl@val+3)^0,w,c
  1616  00300C  A4D8               	btfss	status,2,c
  1617  00300E  EF0B  F018         	goto	u3281
  1618  003012  EF0D  F018         	goto	u3280
  1619  003016                     u3281:
  1620  003016  EF17  F018         	goto	l3583
  1621  00301A                     u3280:
  1622  00301A  0E00               	movlw	0
  1623  00301C  6E17               	movwf	?___xxtofl^0,c
  1624  00301E  0E00               	movlw	0
  1625  003020  6E18               	movwf	(?___xxtofl+1)^0,c
  1626  003022  0E00               	movlw	0
  1627  003024  6E19               	movwf	(?___xxtofl+2)^0,c
  1628  003026  0E00               	movlw	0
  1629  003028  6E1A               	movwf	(?___xxtofl+3)^0,c
  1630  00302A  EFA8  F018         	goto	l1236
  1631  00302E                     l3583:
  1632  00302E  0E96               	movlw	150
  1633  003030  6E20               	movwf	___xxtofl@exp^0,c
  1634  003032  EF21  F018         	goto	l3587
  1635  003036                     l3585:
  1636  003036  2A20               	incf	___xxtofl@exp^0,f,c
  1637  003038  90D8               	bcf	status,0,c
  1638  00303A  3224               	rrcf	(___xxtofl@arg+3)^0,f,c
  1639  00303C  3223               	rrcf	(___xxtofl@arg+2)^0,f,c
  1640  00303E  3222               	rrcf	(___xxtofl@arg+1)^0,f,c
  1641  003040  3221               	rrcf	___xxtofl@arg^0,f,c
  1642  003042                     l3587:
  1643  003042  0E00               	movlw	0
  1644  003044  1421               	andwf	___xxtofl@arg^0,w,c
  1645  003046  6E1B               	movwf	??___xxtofl^0,c
  1646  003048  0E00               	movlw	0
  1647  00304A  1422               	andwf	(___xxtofl@arg+1)^0,w,c
  1648  00304C  6E1C               	movwf	(??___xxtofl+1)^0,c
  1649  00304E  0E00               	movlw	0
  1650  003050  1423               	andwf	(___xxtofl@arg+2)^0,w,c
  1651  003052  6E1D               	movwf	(??___xxtofl+2)^0,c
  1652  003054  0EFE               	movlw	254
  1653  003056  1424               	andwf	(___xxtofl@arg+3)^0,w,c
  1654  003058  6E1E               	movwf	(??___xxtofl+3)^0,c
  1655  00305A  501B               	movf	??___xxtofl^0,w,c
  1656  00305C  101C               	iorwf	(??___xxtofl+1)^0,w,c
  1657  00305E  101D               	iorwf	(??___xxtofl+2)^0,w,c
  1658  003060  101E               	iorwf	(??___xxtofl+3)^0,w,c
  1659  003062  A4D8               	btfss	status,2,c
  1660  003064  EF36  F018         	goto	u3291
  1661  003068  EF38  F018         	goto	u3290
  1662  00306C                     u3291:
  1663  00306C  EF1B  F018         	goto	l3585
  1664  003070                     u3290:
  1665  003070  EF46  F018         	goto	l1240
  1666  003074                     l3589:
  1667  003074  2A20               	incf	___xxtofl@exp^0,f,c
  1668  003076  0E01               	movlw	1
  1669  003078  2621               	addwf	___xxtofl@arg^0,f,c
  1670  00307A  0E00               	movlw	0
  1671  00307C  2222               	addwfc	(___xxtofl@arg+1)^0,f,c
  1672  00307E  2223               	addwfc	(___xxtofl@arg+2)^0,f,c
  1673  003080  2224               	addwfc	(___xxtofl@arg+3)^0,f,c
  1674  003082  90D8               	bcf	status,0,c
  1675  003084  3224               	rrcf	(___xxtofl@arg+3)^0,f,c
  1676  003086  3223               	rrcf	(___xxtofl@arg+2)^0,f,c
  1677  003088  3222               	rrcf	(___xxtofl@arg+1)^0,f,c
  1678  00308A  3221               	rrcf	___xxtofl@arg^0,f,c
  1679  00308C                     l1240:
  1680  00308C  0E00               	movlw	0
  1681  00308E  1421               	andwf	___xxtofl@arg^0,w,c
  1682  003090  6E1B               	movwf	??___xxtofl^0,c
  1683  003092  0E00               	movlw	0
  1684  003094  1422               	andwf	(___xxtofl@arg+1)^0,w,c
  1685  003096  6E1C               	movwf	(??___xxtofl+1)^0,c
  1686  003098  0E00               	movlw	0
  1687  00309A  1423               	andwf	(___xxtofl@arg+2)^0,w,c
  1688  00309C  6E1D               	movwf	(??___xxtofl+2)^0,c
  1689  00309E  0EFF               	movlw	255
  1690  0030A0  1424               	andwf	(___xxtofl@arg+3)^0,w,c
  1691  0030A2  6E1E               	movwf	(??___xxtofl+3)^0,c
  1692  0030A4  501B               	movf	??___xxtofl^0,w,c
  1693  0030A6  101C               	iorwf	(??___xxtofl+1)^0,w,c
  1694  0030A8  101D               	iorwf	(??___xxtofl+2)^0,w,c
  1695  0030AA  101E               	iorwf	(??___xxtofl+3)^0,w,c
  1696  0030AC  A4D8               	btfss	status,2,c
  1697  0030AE  EF5B  F018         	goto	u3301
  1698  0030B2  EF5D  F018         	goto	u3300
  1699  0030B6                     u3301:
  1700  0030B6  EF3A  F018         	goto	l3589
  1701  0030BA                     u3300:
  1702  0030BA  EF65  F018         	goto	l3597
  1703  0030BE                     l3595:
  1704  0030BE  0620               	decf	___xxtofl@exp^0,f,c
  1705  0030C0  90D8               	bcf	status,0,c
  1706  0030C2  3621               	rlcf	___xxtofl@arg^0,f,c
  1707  0030C4  3622               	rlcf	(___xxtofl@arg+1)^0,f,c
  1708  0030C6  3623               	rlcf	(___xxtofl@arg+2)^0,f,c
  1709  0030C8  3624               	rlcf	(___xxtofl@arg+3)^0,f,c
  1710  0030CA                     l3597:
  1711  0030CA  BE23               	btfsc	(___xxtofl@arg+2)^0,7,c
  1712  0030CC  EF6A  F018         	goto	u3311
  1713  0030D0  EF6C  F018         	goto	u3310
  1714  0030D4                     u3311:
  1715  0030D4  EF74  F018         	goto	l1247
  1716  0030D8                     u3310:
  1717  0030D8  0E02               	movlw	2
  1718  0030DA  6020               	cpfslt	___xxtofl@exp^0,c
  1719  0030DC  EF72  F018         	goto	u3321
  1720  0030E0  EF74  F018         	goto	u3320
  1721  0030E4                     u3321:
  1722  0030E4  EF5F  F018         	goto	l3595
  1723  0030E8                     u3320:
  1724  0030E8                     l1247:
  1725  0030E8  B020               	btfsc	___xxtofl@exp^0,0,c
  1726  0030EA  EF79  F018         	goto	u3331
  1727  0030EE  EF7B  F018         	goto	u3330
  1728  0030F2                     u3331:
  1729  0030F2  EF7C  F018         	goto	l3603
  1730  0030F6                     u3330:
  1731  0030F6  9E23               	bcf	(___xxtofl@arg+2)^0,7,c
  1732  0030F8                     l3603:
  1733  0030F8  90D8               	bcf	status,0,c
  1734  0030FA  3220               	rrcf	___xxtofl@exp^0,f,c
  1735  0030FC  C020  F01B         	movff	___xxtofl@exp,??___xxtofl
  1736  003100  6A1C               	clrf	(??___xxtofl+1)^0,c
  1737  003102  6A1D               	clrf	(??___xxtofl+2)^0,c
  1738  003104  6A1E               	clrf	(??___xxtofl+3)^0,c
  1739  003106  C01B  F01E         	movff	??___xxtofl,??___xxtofl+3
  1740  00310A  6A1D               	clrf	(??___xxtofl+2)^0,c
  1741  00310C  6A1C               	clrf	(??___xxtofl+1)^0,c
  1742  00310E  6A1B               	clrf	??___xxtofl^0,c
  1743  003110  501B               	movf	??___xxtofl^0,w,c
  1744  003112  1221               	iorwf	___xxtofl@arg^0,f,c
  1745  003114  501C               	movf	(??___xxtofl+1)^0,w,c
  1746  003116  1222               	iorwf	(___xxtofl@arg+1)^0,f,c
  1747  003118  501D               	movf	(??___xxtofl+2)^0,w,c
  1748  00311A  1223               	iorwf	(___xxtofl@arg+2)^0,f,c
  1749  00311C  501E               	movf	(??___xxtofl+3)^0,w,c
  1750  00311E  1224               	iorwf	(___xxtofl@arg+3)^0,f,c
  1751  003120  501F               	movf	___xxtofl@sign^0,w,c
  1752  003122  B4D8               	btfsc	status,2,c
  1753  003124  EF96  F018         	goto	u3341
  1754  003128  EF98  F018         	goto	u3340
  1755  00312C                     u3341:
  1756  00312C  EFA0  F018         	goto	l3613
  1757  003130                     u3340:
  1758  003130  BE1A               	btfsc	(___xxtofl@val+3)^0,7,c
  1759  003132  EF9F  F018         	goto	u3350
  1760  003136  EF9D  F018         	goto	u3351
  1761  00313A                     u3351:
  1762  00313A  EFA0  F018         	goto	l3613
  1763  00313E                     u3350:
  1764  00313E  8E24               	bsf	(___xxtofl@arg+3)^0,7,c
  1765  003140                     l3613:
  1766  003140  C021  F017         	movff	___xxtofl@arg,?___xxtofl
  1767  003144  C022  F018         	movff	___xxtofl@arg+1,?___xxtofl+1
  1768  003148  C023  F019         	movff	___xxtofl@arg+2,?___xxtofl+2
  1769  00314C  C024  F01A         	movff	___xxtofl@arg+3,?___xxtofl+3
  1770  003150                     l1236:
  1771  003150  0012               	return		;funcret
  1772  003152                     __end_of___xxtofl:
  1773                           	callstack 0
  1774                           
  1775 ;; *************** function _timer0_config *****************
  1776 ;; Defined at:
  1777 ;;		line 13 in file "timer0.c"
  1778 ;; Parameters:    Size  Location     Type
  1779 ;;		None
  1780 ;; Auto vars:     Size  Location     Type
  1781 ;;		None
  1782 ;; Return value:  Size  Location     Type
  1783 ;;                  1    wreg      void 
  1784 ;; Registers used:
  1785 ;;		wreg, status,2, status,0, prodl, prodh, cstack
  1786 ;; Tracked objects:
  1787 ;;		On entry : 0/0
  1788 ;;		On exit  : 0/0
  1789 ;;		Unchanged: 0/0
  1790 ;; Data sizes:     COMRAM   BANK0   BANK1   BANK2   BANK3   BANK4   BANK5   BANK6   BANK7   BANK8   BANK9  BANK10  BANK1
      +1  BANK12  BANK13  BANK14  BANK15  BANK16  BANK17  BANK18  BANK19  BANK20  BANK21  BANK22  BANK23  BANK24  BANK25  BANK2
      +6  BANK27  BANK28  BANK29  BANK30  BANK31
  1791 ;;      Params:         0       0       0       0       0       0       0       0       0       0       0       0       
      +0       0       0       0       0       0       0       0       0       0       0       0       0       0       0       
      +0       0       0       0       0       0
  1792 ;;      Locals:         0       0       0       0       0       0       0       0       0       0       0       0       
      +0       0       0       0       0       0       0       0       0       0       0       0       0       0       0       
      +0       0       0       0       0       0
  1793 ;;      Temps:          0       0       0       0       0       0       0       0       0       0       0       0       
      +0       0       0       0       0       0       0       0       0       0       0       0       0       0       0       
      +0       0       0       0       0       0
  1794 ;;      Totals:         0       0       0       0       0       0       0       0       0       0       0       0       
      +0       0       0       0       0       0       0       0       0       0       0       0       0       0       0       
      +0       0       0       0       0       0
  1795 ;;Total ram usage:        0 bytes
  1796 ;; Hardware stack levels used:    1
  1797 ;; Hardware stack levels required when called:    6
  1798 ;; This function calls:
  1799 ;;		_initial_count
  1800 ;; This function is called by:
  1801 ;;		_main
  1802 ;; This function uses a non-reentrant model
  1803 ;;
  1804                           
  1805                           	psect	text4
  1806  003B4E                     __ptext4:
  1807                           	callstack 0
  1808  003B4E                     _timer0_config:
  1809                           	callstack 24
  1810  003B4E                     
  1811                           ;timer0.c: 15:     INTCON0bits.GIE = 0;
  1812  003B4E  9ED2               	bcf	210,7,c	;volatile
  1813  003B50                     
  1814                           ;timer0.c: 18:     T0CON1bits.CS = 0b010;
  1815  003B50  50B9               	movf	185,w,c	;volatile
  1816  003B52  0B1F               	andlw	-225
  1817  003B54  0940               	iorlw	64
  1818  003B56  6EB9               	movwf	185,c	;volatile
  1819  003B58                     
  1820                           ;timer0.c: 19:     T0CON1bits.ASYNC = 0;
  1821  003B58  98B9               	bcf	185,4,c	;volatile
  1822                           
  1823                           ;timer0.c: 20:     T0CON1bits.CKPS = 0b0000;
  1824  003B5A  0EF0               	movlw	-16
  1825  003B5C  16B9               	andwf	185,f,c	;volatile
  1826                           
  1827                           ;timer0.c: 21:     T0CON0bits.OUTPS = 0b0000;
  1828  003B5E  0EF0               	movlw	-16
  1829  003B60  16B8               	andwf	184,f,c	;volatile
  1830  003B62                     
  1831                           ;timer0.c: 22:     T0CON0bits.MD16 = 1;
  1832  003B62  88B8               	bsf	184,4,c	;volatile
  1833  003B64                     
  1834                           ;timer0.c: 23:     T0CON0bits.EN = 1;
  1835  003B64  8EB8               	bsf	184,7,c	;volatile
  1836  003B66  0E00               	movlw	0
  1837  003B68  0100               	movlb	0	; () banked
  1838  003B6A  6FFA               	movwf	_freq& (0+255),b
  1839  003B6C  0E24               	movlw	36
  1840  003B6E  6FFB               	movwf	(_freq+1)& (0+255),b
  1841  003B70  0E74               	movlw	116
  1842  003B72  6FFC               	movwf	(_freq+2)& (0+255),b
  1843  003B74  0E4B               	movlw	75
  1844  003B76  6FFD               	movwf	(_freq+3)& (0+255),b
  1845  003B78                     
  1846                           ; BSR set to: 0
  1847                           ;timer0.c: 28:     initial_count(0.0001);
  1848  003B78  0E17               	movlw	23
  1849  003B7A  0101               	movlb	1	; () banked
  1850  003B7C  6FEE               	movwf	initial_count@T& (0+255),b
  1851  003B7E  0EB7               	movlw	183
  1852  003B80  6FEF               	movwf	(initial_count@T+1)& (0+255),b
  1853  003B82  0ED1               	movlw	209
  1854  003B84  6FF0               	movwf	(initial_count@T+2)& (0+255),b
  1855  003B86  0E38               	movlw	56
  1856  003B88  6FF1               	movwf	(initial_count@T+3)& (0+255),b
  1857  003B8A  ECE3  F01C         	call	_initial_count	;wreg free
  1858  003B8E                     
  1859                           ;timer0.c: 29:     TMR0H = init_count>>8;
  1860  003B8E  0100               	movlb	0	; () banked
  1861  003B90  51FF               	movf	(_init_count+1)& (0+255),w,b
  1862  003B92  6EB7               	movwf	183,c	;volatile
  1863  003B94                     
  1864                           ; BSR set to: 0
  1865                           ;timer0.c: 30:     TMR0L = init_count;
  1866  003B94  0060  F3FB  FFB6   	movff	_init_count,16310	;volatile
  1867  003B9A                     
  1868                           ; BSR set to: 0
  1869                           ;timer0.c: 32:     PIR3bits.TMR0IF = 0;
  1870  003B9A  0139               	movlb	57	; () banked
  1871  003B9C  9FA3               	bcf	163,7,b	;volatile
  1872  003B9E                     
  1873                           ; BSR set to: 57
  1874                           ;timer0.c: 33:     PIE3bits.TMR0IE = 1;
  1875  003B9E  8F93               	bsf	147,7,b	;volatile
  1876  003BA0                     
  1877                           ; BSR set to: 57
  1878                           ;timer0.c: 34:     INTCON0bits.GIE = 1;
  1879  003BA0  8ED2               	bsf	210,7,c	;volatile
  1880  003BA2                     
  1881                           ; BSR set to: 57
  1882  003BA2  0012               	return		;funcret
  1883  003BA4                     __end_of_timer0_config:
  1884                           	callstack 0
  1885                           
  1886 ;; *************** function _initial_count *****************
  1887 ;; Defined at:
  1888 ;;		line 9 in file "timer0.c"
  1889 ;; Parameters:    Size  Location     Type
  1890 ;;  T               4   10[BANK1 ] float 
  1891 ;; Auto vars:     Size  Location     Type
  1892 ;;		None
  1893 ;; Return value:  Size  Location     Type
  1894 ;;                  1    wreg      void 
  1895 ;; Registers used:
  1896 ;;		wreg, status,2, status,0, prodl, prodh, cstack
  1897 ;; Tracked objects:
  1898 ;;		On entry : 0/0
  1899 ;;		On exit  : 0/0
  1900 ;;		Unchanged: 0/0
  1901 ;; Data sizes:     COMRAM   BANK0   BANK1   BANK2   BANK3   BANK4   BANK5   BANK6   BANK7   BANK8   BANK9  BANK10  BANK1
      +1  BANK12  BANK13  BANK14  BANK15  BANK16  BANK17  BANK18  BANK19  BANK20  BANK21  BANK22  BANK23  BANK24  BANK25  BANK2
      +6  BANK27  BANK28  BANK29  BANK30  BANK31
  1902 ;;      Params:         0       0       4       0       0       0       0       0       0       0       0       0       
      +0       0       0       0       0       0       0       0       0       0       0       0       0       0       0       
      +0       0       0       0       0       0
  1903 ;;      Locals:         0       0       0       0       0       0       0       0       0       0       0       0       
      +0       0       0       0       0       0       0       0       0       0       0       0       0       0       0       
      +0       0       0       0       0       0
  1904 ;;      Temps:          0       0       0       0       0       0       0       0       0       0       0       0       
      +0       0       0       0       0       0       0       0       0       0       0       0       0       0       0       
      +0       0       0       0       0       0
  1905 ;;      Totals:         0       0       4       0       0       0       0       0       0       0       0       0       
      +0       0       0       0       0       0       0       0       0       0       0       0       0       0       0       
      +0       0       0       0       0       0
  1906 ;;Total ram usage:        4 bytes
  1907 ;; Hardware stack levels used:    1
  1908 ;; Hardware stack levels required when called:    5
  1909 ;; This function calls:
  1910 ;;		___flmul
  1911 ;;		___flsub
  1912 ;;		___fltol
  1913 ;; This function is called by:
  1914 ;;		_timer0_config
  1915 ;; This function uses a non-reentrant model
  1916 ;;
  1917                           
  1918                           	psect	text5
  1919  0039C6                     __ptext5:
  1920                           	callstack 0
  1921  0039C6                     _initial_count:
  1922                           	callstack 24
  1923  0039C6                     
  1924                           ;timer0.c: 10:     init_count = (65582 - (T*freq));
  1925  0039C6  C0FA  F01B         	movff	_freq,___flmul@a
  1926  0039CA  C0FB  F01C         	movff	_freq+1,___flmul@a+1
  1927  0039CE  C0FC  F01D         	movff	_freq+2,___flmul@a+2
  1928  0039D2  C0FD  F01E         	movff	_freq+3,___flmul@a+3
  1929  0039D6  C1EE  F017         	movff	initial_count@T,___flmul@b
  1930  0039DA  C1EF  F018         	movff	initial_count@T+1,___flmul@b+1
  1931  0039DE  C1F0  F019         	movff	initial_count@T+2,___flmul@b+2
  1932  0039E2  C1F1  F01A         	movff	initial_count@T+3,___flmul@b+3
  1933  0039E6  EC65  F012         	call	___flmul	;wreg free
  1934  0039EA  C017  F0F6         	movff	?___flmul,___flsub@a
  1935  0039EE  C018  F0F7         	movff	?___flmul+1,___flsub@a+1
  1936  0039F2  C019  F0F8         	movff	?___flmul+2,___flsub@a+2
  1937  0039F6  C01A  F0F9         	movff	?___flmul+3,___flsub@a+3
  1938  0039FA  0E00               	movlw	0
  1939  0039FC  0100               	movlb	0	; () banked
  1940  0039FE  6FF2               	movwf	___flsub@b& (0+255),b
  1941  003A00  0E17               	movlw	23
  1942  003A02  6FF3               	movwf	(___flsub@b+1)& (0+255),b
  1943  003A04  0E80               	movlw	128
  1944  003A06  6FF4               	movwf	(___flsub@b+2)& (0+255),b
  1945  003A08  0E47               	movlw	71
  1946  003A0A  6FF5               	movwf	(___flsub@b+3)& (0+255),b
  1947  003A0C  ECF7  F01D         	call	___flsub	;wreg free
  1948  003A10  C0F2  F1E4         	movff	?___flsub,___fltol@f1
  1949  003A14  C0F3  F1E5         	movff	?___flsub+1,___fltol@f1+1
  1950  003A18  C0F4  F1E6         	movff	?___flsub+2,___fltol@f1+2
  1951  003A1C  C0F5  F1E7         	movff	?___flsub+3,___fltol@f1+3
  1952  003A20  EC31  F019         	call	___fltol	;wreg free
  1953  003A24  C1E4  F0FE         	movff	?___fltol,_init_count
  1954  003A28  C1E5  F0FF         	movff	?___fltol+1,_init_count+1
  1955  003A2C  0012               	return		;funcret
  1956  003A2E                     __end_of_initial_count:
  1957                           	callstack 0
  1958                           
  1959 ;; *************** function ___flsub *****************
  1960 ;; Defined at:
  1961 ;;		line 245 in file "C:\Program Files\Microchip\xc8\v2.31\pic\sources\c99\common\sprcadd.c"
  1962 ;; Parameters:    Size  Location     Type
  1963 ;;  b               4   25[BANK0 ] void 
  1964 ;;  a               4   29[BANK0 ] void 
  1965 ;; Auto vars:     Size  Location     Type
  1966 ;;		None
  1967 ;; Return value:  Size  Location     Type
  1968 ;;                  4   25[BANK0 ] void 
  1969 ;; Registers used:
  1970 ;;		wreg, status,2, status,0, cstack
  1971 ;; Tracked objects:
  1972 ;;		On entry : 0/0
  1973 ;;		On exit  : 0/0
  1974 ;;		Unchanged: 0/0
  1975 ;; Data sizes:     COMRAM   BANK0   BANK1   BANK2   BANK3   BANK4   BANK5   BANK6   BANK7   BANK8   BANK9  BANK10  BANK1
      +1  BANK12  BANK13  BANK14  BANK15  BANK16  BANK17  BANK18  BANK19  BANK20  BANK21  BANK22  BANK23  BANK24  BANK25  BANK2
      +6  BANK27  BANK28  BANK29  BANK30  BANK31
  1976 ;;      Params:         0       8       0       0       0       0       0       0       0       0       0       0       
      +0       0       0       0       0       0       0       0       0       0       0       0       0       0       0       
      +0       0       0       0       0       0
  1977 ;;      Locals:         0       0       0       0       0       0       0       0       0       0       0       0       
      +0       0       0       0       0       0       0       0       0       0       0       0       0       0       0       
      +0       0       0       0       0       0
  1978 ;;      Temps:          0       0       0       0       0       0       0       0       0       0       0       0       
      +0       0       0       0       0       0       0       0       0       0       0       0       0       0       0       
      +0       0       0       0       0       0
  1979 ;;      Totals:         0       8       0       0       0       0       0       0       0       0       0       0       
      +0       0       0       0       0       0       0       0       0       0       0       0       0       0       0       
      +0       0       0       0       0       0
  1980 ;;Total ram usage:        8 bytes
  1981 ;; Hardware stack levels used:    1
  1982 ;; Hardware stack levels required when called:    4
  1983 ;; This function calls:
  1984 ;;		___fladd
  1985 ;; This function is called by:
  1986 ;;		_initial_count
  1987 ;;		_filtrar_seccion_iir
  1988 ;; This function uses a non-reentrant model
  1989 ;;
  1990                           
  1991                           	psect	text6
  1992  003BEE                     __ptext6:
  1993                           	callstack 0
  1994  003BEE                     ___flsub:
  1995                           	callstack 24
  1996  003BEE  0E00               	movlw	0
  1997  003BF0  0100               	movlb	0	; () banked
  1998  003BF2  1BF6               	xorwf	___flsub@a& (0+255),f,b
  1999  003BF4  0E00               	movlw	0
  2000  003BF6  1BF7               	xorwf	(___flsub@a+1)& (0+255),f,b
  2001  003BF8  0E00               	movlw	0
  2002  003BFA  1BF8               	xorwf	(___flsub@a+2)& (0+255),f,b
  2003  003BFC  0E80               	movlw	128
  2004  003BFE  1BF9               	xorwf	(___flsub@a+3)& (0+255),f,b
  2005  003C00                     
  2006                           ; BSR set to: 0
  2007  003C00  C0F2  F0E6         	movff	___flsub@b,___fladd@b
  2008  003C04  C0F3  F0E7         	movff	___flsub@b+1,___fladd@b+1
  2009  003C08  C0F4  F0E8         	movff	___flsub@b+2,___fladd@b+2
  2010  003C0C  C0F5  F0E9         	movff	___flsub@b+3,___fladd@b+3
  2011  003C10  C0F6  F0EA         	movff	___flsub@a,___fladd@a
  2012  003C14  C0F7  F0EB         	movff	___flsub@a+1,___fladd@a+1
  2013  003C18  C0F8  F0EC         	movff	___flsub@a+2,___fladd@a+2
  2014  003C1C  C0F9  F0ED         	movff	___flsub@a+3,___fladd@a+3
  2015  003C20  EC04  F010         	call	___fladd	;wreg free
  2016  003C24  C0E6  F0F2         	movff	?___fladd,?___flsub
  2017  003C28  C0E7  F0F3         	movff	?___fladd+1,?___flsub+1
  2018  003C2C  C0E8  F0F4         	movff	?___fladd+2,?___flsub+2
  2019  003C30  C0E9  F0F5         	movff	?___fladd+3,?___flsub+3
  2020  003C34  0012               	return		;funcret
  2021  003C36                     __end_of___flsub:
  2022                           	callstack 0
  2023                           
  2024 ;; *************** function ___fladd *****************
  2025 ;; Defined at:
  2026 ;;		line 10 in file "C:\Program Files\Microchip\xc8\v2.31\pic\sources\c99\common\sprcadd.c"
  2027 ;; Parameters:    Size  Location     Type
  2028 ;;  b               4   13[BANK0 ] void 
  2029 ;;  a               4   17[BANK0 ] void 
  2030 ;; Auto vars:     Size  Location     Type
  2031 ;;  grs             1   24[BANK0 ] unsigned char 
  2032 ;;  bexp            1   23[BANK0 ] unsigned char 
  2033 ;;  aexp            1   22[BANK0 ] unsigned char 
  2034 ;;  signs           1   21[BANK0 ] unsigned char 
  2035 ;; Return value:  Size  Location     Type
  2036 ;;                  4   13[BANK0 ] unsigned char 
  2037 ;; Registers used:
  2038 ;;		wreg, status,2, status,0
  2039 ;; Tracked objects:
  2040 ;;		On entry : 0/0
  2041 ;;		On exit  : 0/0
  2042 ;;		Unchanged: 0/0
  2043 ;; Data sizes:     COMRAM   BANK0   BANK1   BANK2   BANK3   BANK4   BANK5   BANK6   BANK7   BANK8   BANK9  BANK10  BANK1
      +1  BANK12  BANK13  BANK14  BANK15  BANK16  BANK17  BANK18  BANK19  BANK20  BANK21  BANK22  BANK23  BANK24  BANK25  BANK2
      +6  BANK27  BANK28  BANK29  BANK30  BANK31
  2044 ;;      Params:         0       8       0       0       0       0       0       0       0       0       0       0       
      +0       0       0       0       0       0       0       0       0       0       0       0       0       0       0       
      +0       0       0       0       0       0
  2045 ;;      Locals:         0       4       0       0       0       0       0       0       0       0       0       0       
      +0       0       0       0       0       0       0       0       0       0       0       0       0       0       0       
      +0       0       0       0       0       0
  2046 ;;      Temps:          4       0       0       0       0       0       0       0       0       0       0       0       
      +0       0       0       0       0       0       0       0       0       0       0       0       0       0       0       
      +0       0       0       0       0       0
  2047 ;;      Totals:         4      12       0       0       0       0       0       0       0       0       0       0       
      +0       0       0       0       0       0       0       0       0       0       0       0       0       0       0       
      +0       0       0       0       0       0
  2048 ;;Total ram usage:       16 bytes
  2049 ;; Hardware stack levels used:    1
  2050 ;; Hardware stack levels required when called:    3
  2051 ;; This function calls:
  2052 ;;		Nothing
  2053 ;; This function is called by:
  2054 ;;		_uart_config
  2055 ;;		___flsub
  2056 ;;		_filtrar_seccion_iir
  2057 ;; This function uses a non-reentrant model
  2058 ;;
  2059                           
  2060                           	psect	text7
  2061  002008                     __ptext7:
  2062                           	callstack 0
  2063  002008                     ___fladd:
  2064                           	callstack 26
  2065  002008  0100               	movlb	0	; () banked
  2066  00200A  51E9               	movf	(___fladd@b+3)& (0+255),w,b
  2067  00200C  0B80               	andlw	128
  2068  00200E  6FEE               	movwf	___fladd@signs& (0+255),b
  2069  002010  51E9               	movf	(___fladd@b+3)& (0+255),w,b
  2070  002012  25E9               	addwf	(___fladd@b+3)& (0+255),w,b
  2071  002014  6FF0               	movwf	___fladd@bexp& (0+255),b
  2072  002016                     
  2073                           ; BSR set to: 0
  2074  002016  AFE8               	btfss	(___fladd@b+2)& (0+255),7,b
  2075  002018  EF10  F010         	goto	u2551
  2076  00201C  EF12  F010         	goto	u2550
  2077  002020                     u2551:
  2078  002020  EF13  F010         	goto	l3175
  2079  002024                     u2550:
  2080  002024                     
  2081                           ; BSR set to: 0
  2082  002024  81F0               	bsf	___fladd@bexp& (0+255),0,b
  2083  002026                     l3175:
  2084                           
  2085                           ; BSR set to: 0
  2086  002026  51F0               	movf	___fladd@bexp& (0+255),w,b
  2087  002028  B4D8               	btfsc	status,2,c
  2088  00202A  EF19  F010         	goto	u2561
  2089  00202E  EF1B  F010         	goto	u2560
  2090  002032                     u2561:
  2091  002032  EF30  F010         	goto	l3185
  2092  002036                     u2560:
  2093  002036                     
  2094                           ; BSR set to: 0
  2095  002036  29F0               	incf	___fladd@bexp& (0+255),w,b
  2096  002038  A4D8               	btfss	status,2,c
  2097  00203A  EF21  F010         	goto	u2571
  2098  00203E  EF23  F010         	goto	u2570
  2099  002042                     u2571:
  2100  002042  EF2B  F010         	goto	l3181
  2101  002046                     u2570:
  2102  002046                     
  2103                           ; BSR set to: 0
  2104  002046  0E00               	movlw	0
  2105  002048  6FE6               	movwf	___fladd@b& (0+255),b
  2106  00204A  0E00               	movlw	0
  2107  00204C  6FE7               	movwf	(___fladd@b+1)& (0+255),b
  2108  00204E  0E00               	movlw	0
  2109  002050  6FE8               	movwf	(___fladd@b+2)& (0+255),b
  2110  002052  0E00               	movlw	0
  2111  002054  6FE9               	movwf	(___fladd@b+3)& (0+255),b
  2112  002056                     l3181:
  2113                           
  2114                           ; BSR set to: 0
  2115  002056  8FE8               	bsf	(___fladd@b+2)& (0+255),7,b
  2116  002058                     
  2117                           ; BSR set to: 0
  2118  002058  0E00               	movlw	0
  2119  00205A  6FE9               	movwf	(___fladd@b+3)& (0+255),b
  2120  00205C  EF38  F010         	goto	l3187
  2121  002060                     l3185:
  2122                           
  2123                           ; BSR set to: 0
  2124  002060  0E00               	movlw	0
  2125  002062  6FE6               	movwf	___fladd@b& (0+255),b
  2126  002064  0E00               	movlw	0
  2127  002066  6FE7               	movwf	(___fladd@b+1)& (0+255),b
  2128  002068  0E00               	movlw	0
  2129  00206A  6FE8               	movwf	(___fladd@b+2)& (0+255),b
  2130  00206C  0E00               	movlw	0
  2131  00206E  6FE9               	movwf	(___fladd@b+3)& (0+255),b
  2132  002070                     l3187:
  2133                           
  2134                           ; BSR set to: 0
  2135  002070  51ED               	movf	(___fladd@a+3)& (0+255),w,b
  2136  002072  0B80               	andlw	128
  2137  002074  6FEF               	movwf	___fladd@aexp& (0+255),b
  2138  002076                     
  2139                           ; BSR set to: 0
  2140  002076  51EE               	movf	___fladd@signs& (0+255),w,b
  2141  002078  19EF               	xorwf	___fladd@aexp& (0+255),w,b
  2142  00207A  B4D8               	btfsc	status,2,c
  2143  00207C  EF42  F010         	goto	u2581
  2144  002080  EF44  F010         	goto	u2580
  2145  002084                     u2581:
  2146  002084  EF45  F010         	goto	l3193
  2147  002088                     u2580:
  2148  002088                     
  2149                           ; BSR set to: 0
  2150  002088  8DEE               	bsf	___fladd@signs& (0+255),6,b
  2151  00208A                     l3193:
  2152                           
  2153                           ; BSR set to: 0
  2154  00208A  51ED               	movf	(___fladd@a+3)& (0+255),w,b
  2155  00208C  25ED               	addwf	(___fladd@a+3)& (0+255),w,b
  2156  00208E  6FEF               	movwf	___fladd@aexp& (0+255),b
  2157  002090                     
  2158                           ; BSR set to: 0
  2159  002090  AFEC               	btfss	(___fladd@a+2)& (0+255),7,b
  2160  002092  EF4D  F010         	goto	u2591
  2161  002096  EF4F  F010         	goto	u2590
  2162  00209A                     u2591:
  2163  00209A  EF50  F010         	goto	l3199
  2164  00209E                     u2590:
  2165  00209E                     
  2166                           ; BSR set to: 0
  2167  00209E  81EF               	bsf	___fladd@aexp& (0+255),0,b
  2168  0020A0                     l3199:
  2169                           
  2170                           ; BSR set to: 0
  2171  0020A0  51EF               	movf	___fladd@aexp& (0+255),w,b
  2172  0020A2  B4D8               	btfsc	status,2,c
  2173  0020A4  EF56  F010         	goto	u2601
  2174  0020A8  EF58  F010         	goto	u2600
  2175  0020AC                     u2601:
  2176  0020AC  EF6D  F010         	goto	l3209
  2177  0020B0                     u2600:
  2178  0020B0                     
  2179                           ; BSR set to: 0
  2180  0020B0  29EF               	incf	___fladd@aexp& (0+255),w,b
  2181  0020B2  A4D8               	btfss	status,2,c
  2182  0020B4  EF5E  F010         	goto	u2611
  2183  0020B8  EF60  F010         	goto	u2610
  2184  0020BC                     u2611:
  2185  0020BC  EF68  F010         	goto	l3205
  2186  0020C0                     u2610:
  2187  0020C0                     
  2188                           ; BSR set to: 0
  2189  0020C0  0E00               	movlw	0
  2190  0020C2  6FEA               	movwf	___fladd@a& (0+255),b
  2191  0020C4  0E00               	movlw	0
  2192  0020C6  6FEB               	movwf	(___fladd@a+1)& (0+255),b
  2193  0020C8  0E00               	movlw	0
  2194  0020CA  6FEC               	movwf	(___fladd@a+2)& (0+255),b
  2195  0020CC  0E00               	movlw	0
  2196  0020CE  6FED               	movwf	(___fladd@a+3)& (0+255),b
  2197  0020D0                     l3205:
  2198                           
  2199                           ; BSR set to: 0
  2200  0020D0  8FEC               	bsf	(___fladd@a+2)& (0+255),7,b
  2201  0020D2                     
  2202                           ; BSR set to: 0
  2203  0020D2  0E00               	movlw	0
  2204  0020D4  6FED               	movwf	(___fladd@a+3)& (0+255),b
  2205  0020D6  EF75  F010         	goto	l3211
  2206  0020DA                     l3209:
  2207                           
  2208                           ; BSR set to: 0
  2209  0020DA  0E00               	movlw	0
  2210  0020DC  6FEA               	movwf	___fladd@a& (0+255),b
  2211  0020DE  0E00               	movlw	0
  2212  0020E0  6FEB               	movwf	(___fladd@a+1)& (0+255),b
  2213  0020E2  0E00               	movlw	0
  2214  0020E4  6FEC               	movwf	(___fladd@a+2)& (0+255),b
  2215  0020E6  0E00               	movlw	0
  2216  0020E8  6FED               	movwf	(___fladd@a+3)& (0+255),b
  2217  0020EA                     l3211:
  2218                           
  2219                           ; BSR set to: 0
  2220  0020EA  51F0               	movf	___fladd@bexp& (0+255),w,b
  2221  0020EC  5DEF               	subwf	___fladd@aexp& (0+255),w,b
  2222  0020EE  B0D8               	btfsc	status,0,c
  2223  0020F0  EF7C  F010         	goto	u2621
  2224  0020F4  EF7E  F010         	goto	u2620
  2225  0020F8                     u2621:
  2226  0020F8  EFA5  F010         	goto	l3247
  2227  0020FC                     u2620:
  2228  0020FC                     
  2229                           ; BSR set to: 0
  2230  0020FC  ADEE               	btfss	___fladd@signs& (0+255),6,b
  2231  0020FE  EF83  F010         	goto	u2631
  2232  002102  EF85  F010         	goto	u2630
  2233  002106                     u2631:
  2234  002106  EF87  F010         	goto	l3217
  2235  00210A                     u2630:
  2236  00210A                     
  2237                           ; BSR set to: 0
  2238  00210A  0E80               	movlw	128
  2239  00210C  1BEE               	xorwf	___fladd@signs& (0+255),f,b
  2240  00210E                     l3217:
  2241                           
  2242                           ; BSR set to: 0
  2243  00210E  C0F0  F0F1         	movff	___fladd@bexp,___fladd@grs
  2244  002112                     
  2245                           ; BSR set to: 0
  2246  002112  C0EF  F0F0         	movff	___fladd@aexp,___fladd@bexp
  2247  002116                     
  2248                           ; BSR set to: 0
  2249  002116  C0F1  F0EF         	movff	___fladd@grs,___fladd@aexp
  2250  00211A                     
  2251                           ; BSR set to: 0
  2252  00211A  C0E6  F0F1         	movff	___fladd@b,___fladd@grs
  2253  00211E                     
  2254                           ; BSR set to: 0
  2255  00211E  C0EA  F0E6         	movff	___fladd@a,___fladd@b
  2256  002122                     
  2257                           ; BSR set to: 0
  2258  002122  C0F1  F0EA         	movff	___fladd@grs,___fladd@a
  2259  002126                     
  2260                           ; BSR set to: 0
  2261  002126  C0E7  F0F1         	movff	___fladd@b+1,___fladd@grs
  2262  00212A                     
  2263                           ; BSR set to: 0
  2264  00212A  C0EB  F0E7         	movff	___fladd@a+1,___fladd@b+1
  2265  00212E                     
  2266                           ; BSR set to: 0
  2267  00212E  C0F1  F0EB         	movff	___fladd@grs,___fladd@a+1
  2268  002132                     
  2269                           ; BSR set to: 0
  2270  002132  C0E8  F0F1         	movff	___fladd@b+2,___fladd@grs
  2271  002136                     
  2272                           ; BSR set to: 0
  2273  002136  C0EC  F0E8         	movff	___fladd@a+2,___fladd@b+2
  2274  00213A                     
  2275                           ; BSR set to: 0
  2276  00213A  C0F1  F0EC         	movff	___fladd@grs,___fladd@a+2
  2277  00213E                     
  2278                           ; BSR set to: 0
  2279  00213E  C0E9  F0F1         	movff	___fladd@b+3,___fladd@grs
  2280  002142                     
  2281                           ; BSR set to: 0
  2282  002142  C0ED  F0E9         	movff	___fladd@a+3,___fladd@b+3
  2283  002146                     
  2284                           ; BSR set to: 0
  2285  002146  C0F1  F0ED         	movff	___fladd@grs,___fladd@a+3
  2286  00214A                     l3247:
  2287                           
  2288                           ; BSR set to: 0
  2289  00214A  0E00               	movlw	0
  2290  00214C  6FF1               	movwf	___fladd@grs& (0+255),b
  2291  00214E                     
  2292                           ; BSR set to: 0
  2293  00214E  51F0               	movf	___fladd@bexp& (0+255),w,b
  2294  002150  C0EF  F031         	movff	___fladd@aexp,??___fladd
  2295  002154  6A32               	clrf	(??___fladd+1)^0,c
  2296  002156  5E31               	subwf	??___fladd^0,f,c
  2297  002158  0E00               	movlw	0
  2298  00215A  5A32               	subwfb	(??___fladd+1)^0,f,c
  2299  00215C  BE32               	btfsc	(??___fladd+1)^0,7,c
  2300  00215E  EFBA  F010         	goto	u2641
  2301  002162  5032               	movf	(??___fladd+1)^0,w,c
  2302  002164  E109               	bnz	u2640
  2303  002166  0E1A               	movlw	26
  2304  002168  5C31               	subwf	??___fladd^0,w,c
  2305  00216A  A0D8               	btfss	status,0,c
  2306  00216C  EFBA  F010         	goto	u2641
  2307  002170  EFBC  F010         	goto	u2640
  2308  002174                     u2641:
  2309  002174  EFF3  F010         	goto	l1107
  2310  002178                     u2640:
  2311  002178                     
  2312                           ; BSR set to: 0
  2313  002178  51E6               	movf	___fladd@b& (0+255),w,b
  2314  00217A  11E7               	iorwf	(___fladd@b+1)& (0+255),w,b
  2315  00217C  11E8               	iorwf	(___fladd@b+2)& (0+255),w,b
  2316  00217E  11E9               	iorwf	(___fladd@b+3)& (0+255),w,b
  2317  002180  A4D8               	btfss	status,2,c
  2318  002182  EFC5  F010         	goto	u2651
  2319  002186  EFC8  F010         	goto	u2650
  2320  00218A                     u2651:
  2321  00218A  0E01               	movlw	1
  2322  00218C  EFC9  F010         	goto	u2660
  2323  002190                     u2650:
  2324  002190  0E00               	movlw	0
  2325  002192                     u2660:
  2326  002192  6FF1               	movwf	___fladd@grs& (0+255),b
  2327  002194                     
  2328                           ; BSR set to: 0
  2329  002194  0E00               	movlw	0
  2330  002196  6FE6               	movwf	___fladd@b& (0+255),b
  2331  002198  0E00               	movlw	0
  2332  00219A  6FE7               	movwf	(___fladd@b+1)& (0+255),b
  2333  00219C  0E00               	movlw	0
  2334  00219E  6FE8               	movwf	(___fladd@b+2)& (0+255),b
  2335  0021A0  0E00               	movlw	0
  2336  0021A2  6FE9               	movwf	(___fladd@b+3)& (0+255),b
  2337  0021A4                     
  2338                           ; BSR set to: 0
  2339  0021A4  C0EF  F0F0         	movff	___fladd@aexp,___fladd@bexp
  2340  0021A8  EFFC  F010         	goto	l1106
  2341  0021AC                     l1108:
  2342                           
  2343                           ; BSR set to: 0
  2344  0021AC  A1F1               	btfss	___fladd@grs& (0+255),0,b
  2345  0021AE  EFDB  F010         	goto	u2671
  2346  0021B2  EFDD  F010         	goto	u2670
  2347  0021B6                     u2671:
  2348  0021B6  EFE3  F010         	goto	l3259
  2349  0021BA                     u2670:
  2350  0021BA                     
  2351                           ; BSR set to: 0
  2352  0021BA  90D8               	bcf	status,0,c
  2353  0021BC  31F1               	rrcf	___fladd@grs& (0+255),w,b
  2354  0021BE  0901               	iorlw	1
  2355  0021C0  6FF1               	movwf	___fladd@grs& (0+255),b
  2356  0021C2  EFE5  F010         	goto	l3261
  2357  0021C6                     l3259:
  2358                           
  2359                           ; BSR set to: 0
  2360  0021C6  90D8               	bcf	status,0,c
  2361  0021C8  33F1               	rrcf	___fladd@grs& (0+255),f,b
  2362  0021CA                     l3261:
  2363                           
  2364                           ; BSR set to: 0
  2365  0021CA  A1E6               	btfss	___fladd@b& (0+255),0,b
  2366  0021CC  EFEA  F010         	goto	u2681
  2367  0021D0  EFEC  F010         	goto	u2680
  2368  0021D4                     u2681:
  2369  0021D4  EFED  F010         	goto	l3265
  2370  0021D8                     u2680:
  2371  0021D8                     
  2372                           ; BSR set to: 0
  2373  0021D8  8FF1               	bsf	___fladd@grs& (0+255),7,b
  2374  0021DA                     l3265:
  2375                           
  2376                           ; BSR set to: 0
  2377  0021DA  35E9               	rlcf	(___fladd@b+3)& (0+255),w,b
  2378  0021DC  33E9               	rrcf	(___fladd@b+3)& (0+255),f,b
  2379  0021DE  33E8               	rrcf	(___fladd@b+2)& (0+255),f,b
  2380  0021E0  33E7               	rrcf	(___fladd@b+1)& (0+255),f,b
  2381  0021E2  33E6               	rrcf	___fladd@b& (0+255),f,b
  2382  0021E4                     
  2383                           ; BSR set to: 0
  2384  0021E4  2BF0               	incf	___fladd@bexp& (0+255),f,b
  2385  0021E6                     l1107:
  2386                           
  2387                           ; BSR set to: 0
  2388  0021E6  51EF               	movf	___fladd@aexp& (0+255),w,b
  2389  0021E8  5DF0               	subwf	___fladd@bexp& (0+255),w,b
  2390  0021EA  A0D8               	btfss	status,0,c
  2391  0021EC  EFFA  F010         	goto	u2691
  2392  0021F0  EFFC  F010         	goto	u2690
  2393  0021F4                     u2691:
  2394  0021F4  EFD6  F010         	goto	l1108
  2395  0021F8                     u2690:
  2396  0021F8                     l1106:
  2397                           
  2398                           ; BSR set to: 0
  2399  0021F8  BDEE               	btfsc	___fladd@signs& (0+255),6,b
  2400  0021FA  EF01  F011         	goto	u2701
  2401  0021FE  EF03  F011         	goto	u2700
  2402  002202                     u2701:
  2403  002202  EF43  F011         	goto	l3293
  2404  002206                     u2700:
  2405  002206                     
  2406                           ; BSR set to: 0
  2407  002206  51F0               	movf	___fladd@bexp& (0+255),w,b
  2408  002208  A4D8               	btfss	status,2,c
  2409  00220A  EF09  F011         	goto	u2711
  2410  00220E  EF0B  F011         	goto	u2710
  2411  002212                     u2711:
  2412  002212  EF15  F011         	goto	l3275
  2413  002216                     u2710:
  2414  002216                     
  2415                           ; BSR set to: 0
  2416  002216  0E00               	movlw	0
  2417  002218  6FE6               	movwf	?___fladd& (0+255),b
  2418  00221A  0E00               	movlw	0
  2419  00221C  6FE7               	movwf	(?___fladd+1)& (0+255),b
  2420  00221E  0E00               	movlw	0
  2421  002220  6FE8               	movwf	(?___fladd+2)& (0+255),b
  2422  002222  0E00               	movlw	0
  2423  002224  6FE9               	movwf	(?___fladd+3)& (0+255),b
  2424  002226  EF64  F012         	goto	l1115
  2425  00222A                     l3275:
  2426                           
  2427                           ; BSR set to: 0
  2428  00222A  51EA               	movf	___fladd@a& (0+255),w,b
  2429  00222C  27E6               	addwf	___fladd@b& (0+255),f,b
  2430  00222E  51EB               	movf	(___fladd@a+1)& (0+255),w,b
  2431  002230  23E7               	addwfc	(___fladd@b+1)& (0+255),f,b
  2432  002232  51EC               	movf	(___fladd@a+2)& (0+255),w,b
  2433  002234  23E8               	addwfc	(___fladd@b+2)& (0+255),f,b
  2434  002236  51ED               	movf	(___fladd@a+3)& (0+255),w,b
  2435  002238  23E9               	addwfc	(___fladd@b+3)& (0+255),f,b
  2436  00223A                     
  2437                           ; BSR set to: 0
  2438  00223A  A1E9               	btfss	(___fladd@b+3)& (0+255),0,b
  2439  00223C  EF22  F011         	goto	u2721
  2440  002240  EF24  F011         	goto	u2720
  2441  002244                     u2721:
  2442  002244  EFD0  F011         	goto	l3329
  2443  002248                     u2720:
  2444  002248                     
  2445                           ; BSR set to: 0
  2446  002248  A1F1               	btfss	___fladd@grs& (0+255),0,b
  2447  00224A  EF29  F011         	goto	u2731
  2448  00224E  EF2B  F011         	goto	u2730
  2449  002252                     u2731:
  2450  002252  EF31  F011         	goto	l3283
  2451  002256                     u2730:
  2452  002256                     
  2453                           ; BSR set to: 0
  2454  002256  90D8               	bcf	status,0,c
  2455  002258  31F1               	rrcf	___fladd@grs& (0+255),w,b
  2456  00225A  0901               	iorlw	1
  2457  00225C  6FF1               	movwf	___fladd@grs& (0+255),b
  2458  00225E  EF33  F011         	goto	l3285
  2459  002262                     l3283:
  2460                           
  2461                           ; BSR set to: 0
  2462  002262  90D8               	bcf	status,0,c
  2463  002264  33F1               	rrcf	___fladd@grs& (0+255),f,b
  2464  002266                     l3285:
  2465                           
  2466                           ; BSR set to: 0
  2467  002266  A1E6               	btfss	___fladd@b& (0+255),0,b
  2468  002268  EF38  F011         	goto	u2741
  2469  00226C  EF3A  F011         	goto	u2740
  2470  002270                     u2741:
  2471  002270  EF3B  F011         	goto	l3289
  2472  002274                     u2740:
  2473  002274                     
  2474                           ; BSR set to: 0
  2475  002274  8FF1               	bsf	___fladd@grs& (0+255),7,b
  2476  002276                     l3289:
  2477                           
  2478                           ; BSR set to: 0
  2479  002276  35E9               	rlcf	(___fladd@b+3)& (0+255),w,b
  2480  002278  33E9               	rrcf	(___fladd@b+3)& (0+255),f,b
  2481  00227A  33E8               	rrcf	(___fladd@b+2)& (0+255),f,b
  2482  00227C  33E7               	rrcf	(___fladd@b+1)& (0+255),f,b
  2483  00227E  33E6               	rrcf	___fladd@b& (0+255),f,b
  2484  002280                     
  2485                           ; BSR set to: 0
  2486  002280  2BF0               	incf	___fladd@bexp& (0+255),f,b
  2487  002282  EFD0  F011         	goto	l3329
  2488  002286                     l3293:
  2489                           
  2490                           ; BSR set to: 0
  2491  002286  51EA               	movf	___fladd@a& (0+255),w,b
  2492  002288  5DE6               	subwf	___fladd@b& (0+255),w,b
  2493  00228A  51EB               	movf	(___fladd@a+1)& (0+255),w,b
  2494  00228C  59E7               	subwfb	(___fladd@b+1)& (0+255),w,b
  2495  00228E  51EC               	movf	(___fladd@a+2)& (0+255),w,b
  2496  002290  59E8               	subwfb	(___fladd@b+2)& (0+255),w,b
  2497  002292  51E9               	movf	(___fladd@b+3)& (0+255),w,b
  2498  002294  0A80               	xorlw	128
  2499  002296  6E31               	movwf	??___fladd^0,c
  2500  002298  51ED               	movf	(___fladd@a+3)& (0+255),w,b
  2501  00229A  0A80               	xorlw	128
  2502  00229C  5831               	subwfb	??___fladd^0,w,c
  2503  00229E  B0D8               	btfsc	status,0,c
  2504  0022A0  EF54  F011         	goto	u2751
  2505  0022A4  EF56  F011         	goto	u2750
  2506  0022A8                     u2751:
  2507  0022A8  EF81  F011         	goto	l3303
  2508  0022AC                     u2750:
  2509  0022AC                     
  2510                           ; BSR set to: 0
  2511  0022AC  51E6               	movf	___fladd@b& (0+255),w,b
  2512  0022AE  5DEA               	subwf	___fladd@a& (0+255),w,b
  2513  0022B0  6E31               	movwf	??___fladd^0,c
  2514  0022B2  51E7               	movf	(___fladd@b+1)& (0+255),w,b
  2515  0022B4  59EB               	subwfb	(___fladd@a+1)& (0+255),w,b
  2516  0022B6  6E32               	movwf	(??___fladd+1)^0,c
  2517  0022B8  51E8               	movf	(___fladd@b+2)& (0+255),w,b
  2518  0022BA  59EC               	subwfb	(___fladd@a+2)& (0+255),w,b
  2519  0022BC  6E33               	movwf	(??___fladd+2)^0,c
  2520  0022BE  51E9               	movf	(___fladd@b+3)& (0+255),w,b
  2521  0022C0  59ED               	subwfb	(___fladd@a+3)& (0+255),w,b
  2522  0022C2  6E34               	movwf	(??___fladd+3)^0,c
  2523  0022C4  0EFF               	movlw	255
  2524  0022C6  2431               	addwf	??___fladd^0,w,c
  2525  0022C8  6FE6               	movwf	___fladd@b& (0+255),b
  2526  0022CA  0EFF               	movlw	255
  2527  0022CC  2032               	addwfc	(??___fladd+1)^0,w,c
  2528  0022CE  6FE7               	movwf	(___fladd@b+1)& (0+255),b
  2529  0022D0  0EFF               	movlw	255
  2530  0022D2  2033               	addwfc	(??___fladd+2)^0,w,c
  2531  0022D4  6FE8               	movwf	(___fladd@b+2)& (0+255),b
  2532  0022D6  0EFF               	movlw	255
  2533  0022D8  2034               	addwfc	(??___fladd+3)^0,w,c
  2534  0022DA  6FE9               	movwf	(___fladd@b+3)& (0+255),b
  2535  0022DC  0E80               	movlw	128
  2536  0022DE  1BEE               	xorwf	___fladd@signs& (0+255),f,b
  2537  0022E0                     
  2538                           ; BSR set to: 0
  2539  0022E0  6DF1               	negf	___fladd@grs& (0+255),b
  2540  0022E2                     
  2541                           ; BSR set to: 0
  2542  0022E2  51F1               	movf	___fladd@grs& (0+255),w,b
  2543  0022E4  A4D8               	btfss	status,2,c
  2544  0022E6  EF77  F011         	goto	u2761
  2545  0022EA  EF79  F011         	goto	u2760
  2546  0022EE                     u2761:
  2547  0022EE  EF89  F011         	goto	l1123
  2548  0022F2                     u2760:
  2549  0022F2                     
  2550                           ; BSR set to: 0
  2551  0022F2  0E01               	movlw	1
  2552  0022F4  27E6               	addwf	___fladd@b& (0+255),f,b
  2553  0022F6  0E00               	movlw	0
  2554  0022F8  23E7               	addwfc	(___fladd@b+1)& (0+255),f,b
  2555  0022FA  23E8               	addwfc	(___fladd@b+2)& (0+255),f,b
  2556  0022FC  23E9               	addwfc	(___fladd@b+3)& (0+255),f,b
  2557  0022FE  EF89  F011         	goto	l1123
  2558  002302                     l3303:
  2559                           
  2560                           ; BSR set to: 0
  2561  002302  51EA               	movf	___fladd@a& (0+255),w,b
  2562  002304  5FE6               	subwf	___fladd@b& (0+255),f,b
  2563  002306  51EB               	movf	(___fladd@a+1)& (0+255),w,b
  2564  002308  5BE7               	subwfb	(___fladd@b+1)& (0+255),f,b
  2565  00230A  51EC               	movf	(___fladd@a+2)& (0+255),w,b
  2566  00230C  5BE8               	subwfb	(___fladd@b+2)& (0+255),f,b
  2567  00230E  51ED               	movf	(___fladd@a+3)& (0+255),w,b
  2568  002310  5BE9               	subwfb	(___fladd@b+3)& (0+255),f,b
  2569  002312                     l1123:
  2570                           
  2571                           ; BSR set to: 0
  2572  002312  51E6               	movf	___fladd@b& (0+255),w,b
  2573  002314  11E7               	iorwf	(___fladd@b+1)& (0+255),w,b
  2574  002316  11E8               	iorwf	(___fladd@b+2)& (0+255),w,b
  2575  002318  11E9               	iorwf	(___fladd@b+3)& (0+255),w,b
  2576  00231A  A4D8               	btfss	status,2,c
  2577  00231C  EF92  F011         	goto	u2771
  2578  002320  EF94  F011         	goto	u2770
  2579  002324                     u2771:
  2580  002324  EFC9  F011         	goto	l3327
  2581  002328                     u2770:
  2582  002328                     
  2583                           ; BSR set to: 0
  2584  002328  51F1               	movf	___fladd@grs& (0+255),w,b
  2585  00232A  A4D8               	btfss	status,2,c
  2586  00232C  EF9A  F011         	goto	u2781
  2587  002330  EF9C  F011         	goto	u2780
  2588  002334                     u2781:
  2589  002334  EFC9  F011         	goto	l3327
  2590  002338                     u2780:
  2591  002338                     
  2592                           ; BSR set to: 0
  2593  002338  0E00               	movlw	0
  2594  00233A  6FE6               	movwf	?___fladd& (0+255),b
  2595  00233C  0E00               	movlw	0
  2596  00233E  6FE7               	movwf	(?___fladd+1)& (0+255),b
  2597  002340  0E00               	movlw	0
  2598  002342  6FE8               	movwf	(?___fladd+2)& (0+255),b
  2599  002344  0E00               	movlw	0
  2600  002346  6FE9               	movwf	(?___fladd+3)& (0+255),b
  2601  002348  EF64  F012         	goto	l1115
  2602  00234C                     l3311:
  2603                           
  2604                           ; BSR set to: 0
  2605  00234C  90D8               	bcf	status,0,c
  2606  00234E  37E6               	rlcf	___fladd@b& (0+255),f,b
  2607  002350  37E7               	rlcf	(___fladd@b+1)& (0+255),f,b
  2608  002352  37E8               	rlcf	(___fladd@b+2)& (0+255),f,b
  2609  002354  37E9               	rlcf	(___fladd@b+3)& (0+255),f,b
  2610  002356                     
  2611                           ; BSR set to: 0
  2612  002356  AFF1               	btfss	___fladd@grs& (0+255),7,b
  2613  002358  EFB0  F011         	goto	u2791
  2614  00235C  EFB2  F011         	goto	u2790
  2615  002360                     u2791:
  2616  002360  EFB3  F011         	goto	l3317
  2617  002364                     u2790:
  2618  002364                     
  2619                           ; BSR set to: 0
  2620  002364  81E6               	bsf	___fladd@b& (0+255),0,b
  2621  002366                     l3317:
  2622                           
  2623                           ; BSR set to: 0
  2624  002366  A1F1               	btfss	___fladd@grs& (0+255),0,b
  2625  002368  EFB8  F011         	goto	u2801
  2626  00236C  EFBA  F011         	goto	u2800
  2627  002370                     u2801:
  2628  002370  EFBE  F011         	goto	l3321
  2629  002374                     u2800:
  2630  002374                     
  2631                           ; BSR set to: 0
  2632  002374  80D8               	bsf	status,0,c
  2633  002376  37F1               	rlcf	___fladd@grs& (0+255),f,b
  2634  002378  EFC0  F011         	goto	l3323
  2635  00237C                     l3321:
  2636                           
  2637                           ; BSR set to: 0
  2638  00237C  90D8               	bcf	status,0,c
  2639  00237E  37F1               	rlcf	___fladd@grs& (0+255),f,b
  2640  002380                     l3323:
  2641                           
  2642                           ; BSR set to: 0
  2643  002380  51F0               	movf	___fladd@bexp& (0+255),w,b
  2644  002382  B4D8               	btfsc	status,2,c
  2645  002384  EFC6  F011         	goto	u2811
  2646  002388  EFC8  F011         	goto	u2810
  2647  00238C                     u2811:
  2648  00238C  EFC9  F011         	goto	l3327
  2649  002390                     u2810:
  2650  002390                     
  2651                           ; BSR set to: 0
  2652  002390  07F0               	decf	___fladd@bexp& (0+255),f,b
  2653  002392                     l3327:
  2654                           
  2655                           ; BSR set to: 0
  2656  002392  AFE8               	btfss	(___fladd@b+2)& (0+255),7,b
  2657  002394  EFCE  F011         	goto	u2821
  2658  002398  EFD0  F011         	goto	u2820
  2659  00239C                     u2821:
  2660  00239C  EFA6  F011         	goto	l3311
  2661  0023A0                     u2820:
  2662  0023A0                     l3329:
  2663                           
  2664                           ; BSR set to: 0
  2665  0023A0  0E00               	movlw	0
  2666  0023A2  6FEF               	movwf	___fladd@aexp& (0+255),b
  2667  0023A4                     
  2668                           ; BSR set to: 0
  2669  0023A4  AFF1               	btfss	___fladd@grs& (0+255),7,b
  2670  0023A6  EFD7  F011         	goto	u2831
  2671  0023AA  EFD9  F011         	goto	u2830
  2672  0023AE                     u2831:
  2673  0023AE  EFF1  F011         	goto	l1132
  2674  0023B2                     u2830:
  2675  0023B2                     
  2676                           ; BSR set to: 0
  2677  0023B2  C0F1  F031         	movff	___fladd@grs,??___fladd
  2678  0023B6  0E7F               	movlw	127
  2679  0023B8  1631               	andwf	??___fladd^0,f,c
  2680  0023BA  B4D8               	btfsc	status,2,c
  2681  0023BC  EFE2  F011         	goto	u2841
  2682  0023C0  EFE4  F011         	goto	u2840
  2683  0023C4                     u2841:
  2684  0023C4  EFE8  F011         	goto	l1133
  2685  0023C8                     u2840:
  2686  0023C8                     l3335:
  2687                           
  2688                           ; BSR set to: 0
  2689  0023C8  0E01               	movlw	1
  2690  0023CA  6FEF               	movwf	___fladd@aexp& (0+255),b
  2691  0023CC  EFF1  F011         	goto	l1132
  2692  0023D0                     l1133:
  2693                           
  2694                           ; BSR set to: 0
  2695  0023D0  A1E6               	btfss	___fladd@b& (0+255),0,b
  2696  0023D2  EFED  F011         	goto	u2851
  2697  0023D6  EFEF  F011         	goto	u2850
  2698  0023DA                     u2851:
  2699  0023DA  EFF1  F011         	goto	l1132
  2700  0023DE                     u2850:
  2701  0023DE  EFE4  F011         	goto	l3335
  2702  0023E2                     l1132:
  2703                           
  2704                           ; BSR set to: 0
  2705  0023E2  51EF               	movf	___fladd@aexp& (0+255),w,b
  2706  0023E4  B4D8               	btfsc	status,2,c
  2707  0023E6  EFF7  F011         	goto	u2861
  2708  0023EA  EFF9  F011         	goto	u2860
  2709  0023EE                     u2861:
  2710  0023EE  EF24  F012         	goto	l3347
  2711  0023F2                     u2860:
  2712  0023F2                     
  2713                           ; BSR set to: 0
  2714  0023F2  0E01               	movlw	1
  2715  0023F4  27E6               	addwf	___fladd@b& (0+255),f,b
  2716  0023F6  0E00               	movlw	0
  2717  0023F8  23E7               	addwfc	(___fladd@b+1)& (0+255),f,b
  2718  0023FA  23E8               	addwfc	(___fladd@b+2)& (0+255),f,b
  2719  0023FC  23E9               	addwfc	(___fladd@b+3)& (0+255),f,b
  2720  0023FE                     
  2721                           ; BSR set to: 0
  2722  0023FE  A1E9               	btfss	(___fladd@b+3)& (0+255),0,b
  2723  002400  EF04  F012         	goto	u2871
  2724  002404  EF06  F012         	goto	u2870
  2725  002408                     u2871:
  2726  002408  EF24  F012         	goto	l3347
  2727  00240C                     u2870:
  2728  00240C                     
  2729                           ; BSR set to: 0
  2730  00240C  C0E6  F031         	movff	___fladd@b,??___fladd
  2731  002410  C0E7  F032         	movff	___fladd@b+1,??___fladd+1
  2732  002414  C0E8  F033         	movff	___fladd@b+2,??___fladd+2
  2733  002418  C0E9  F034         	movff	___fladd@b+3,??___fladd+3
  2734  00241C  3434               	rlcf	(??___fladd+3)^0,w,c
  2735  00241E  3234               	rrcf	(??___fladd+3)^0,f,c
  2736  002420  3233               	rrcf	(??___fladd+2)^0,f,c
  2737  002422  3232               	rrcf	(??___fladd+1)^0,f,c
  2738  002424  3231               	rrcf	??___fladd^0,f,c
  2739  002426  C031  F0E6         	movff	??___fladd,___fladd@b
  2740  00242A  C032  F0E7         	movff	??___fladd+1,___fladd@b+1
  2741  00242E  C033  F0E8         	movff	??___fladd+2,___fladd@b+2
  2742  002432  C034  F0E9         	movff	??___fladd+3,___fladd@b+3
  2743  002436  29F0               	incf	___fladd@bexp& (0+255),w,b
  2744  002438  B4D8               	btfsc	status,2,c
  2745  00243A  EF21  F012         	goto	u2881
  2746  00243E  EF23  F012         	goto	u2880
  2747  002442                     u2881:
  2748  002442  EF24  F012         	goto	l3347
  2749  002446                     u2880:
  2750  002446                     
  2751                           ; BSR set to: 0
  2752  002446  2BF0               	incf	___fladd@bexp& (0+255),f,b
  2753  002448                     l3347:
  2754                           
  2755                           ; BSR set to: 0
  2756  002448  29F0               	incf	___fladd@bexp& (0+255),w,b
  2757  00244A  B4D8               	btfsc	status,2,c
  2758  00244C  EF2A  F012         	goto	u2891
  2759  002450  EF2C  F012         	goto	u2890
  2760  002454                     u2891:
  2761  002454  EF34  F012         	goto	l3351
  2762  002458                     u2890:
  2763  002458                     
  2764                           ; BSR set to: 0
  2765  002458  51F0               	movf	___fladd@bexp& (0+255),w,b
  2766  00245A  A4D8               	btfss	status,2,c
  2767  00245C  EF32  F012         	goto	u2901
  2768  002460  EF34  F012         	goto	u2900
  2769  002464                     u2901:
  2770  002464  EF46  F012         	goto	l3355
  2771  002468                     u2900:
  2772  002468                     l3351:
  2773                           
  2774                           ; BSR set to: 0
  2775  002468  0E00               	movlw	0
  2776  00246A  6FE6               	movwf	___fladd@b& (0+255),b
  2777  00246C  0E00               	movlw	0
  2778  00246E  6FE7               	movwf	(___fladd@b+1)& (0+255),b
  2779  002470  0E00               	movlw	0
  2780  002472  6FE8               	movwf	(___fladd@b+2)& (0+255),b
  2781  002474  0E00               	movlw	0
  2782  002476  6FE9               	movwf	(___fladd@b+3)& (0+255),b
  2783  002478  51F0               	movf	___fladd@bexp& (0+255),w,b
  2784  00247A  A4D8               	btfss	status,2,c
  2785  00247C  EF42  F012         	goto	u2911
  2786  002480  EF44  F012         	goto	u2910
  2787  002484                     u2911:
  2788  002484  EF46  F012         	goto	l3355
  2789  002488                     u2910:
  2790  002488                     
  2791                           ; BSR set to: 0
  2792  002488  0E00               	movlw	0
  2793  00248A  6FEE               	movwf	___fladd@signs& (0+255),b
  2794  00248C                     l3355:
  2795                           
  2796                           ; BSR set to: 0
  2797  00248C  A1F0               	btfss	___fladd@bexp& (0+255),0,b
  2798  00248E  EF4B  F012         	goto	u2921
  2799  002492  EF4D  F012         	goto	u2920
  2800  002496                     u2921:
  2801  002496  EF50  F012         	goto	l3359
  2802  00249A                     u2920:
  2803  00249A                     
  2804                           ; BSR set to: 0
  2805  00249A  8FE8               	bsf	(___fladd@b+2)& (0+255),7,b
  2806  00249C  EF51  F012         	goto	l3361
  2807  0024A0                     l3359:
  2808                           
  2809                           ; BSR set to: 0
  2810  0024A0  9FE8               	bcf	(___fladd@b+2)& (0+255),7,b
  2811  0024A2                     l3361:
  2812                           
  2813                           ; BSR set to: 0
  2814  0024A2  90D8               	bcf	status,0,c
  2815  0024A4  31F0               	rrcf	___fladd@bexp& (0+255),w,b
  2816  0024A6  6FE9               	movwf	(___fladd@b+3)& (0+255),b
  2817  0024A8                     
  2818                           ; BSR set to: 0
  2819  0024A8  AFEE               	btfss	___fladd@signs& (0+255),7,b
  2820  0024AA  EF59  F012         	goto	u2931
  2821  0024AE  EF5B  F012         	goto	u2930
  2822  0024B2                     u2931:
  2823  0024B2  EF5C  F012         	goto	l3367
  2824  0024B6                     u2930:
  2825  0024B6                     
  2826                           ; BSR set to: 0
  2827  0024B6  8FE9               	bsf	(___fladd@b+3)& (0+255),7,b
  2828  0024B8                     l3367:
  2829                           
  2830                           ; BSR set to: 0
  2831  0024B8  C0E6  F0E6         	movff	___fladd@b,?___fladd
  2832  0024BC  C0E7  F0E7         	movff	___fladd@b+1,?___fladd+1
  2833  0024C0  C0E8  F0E8         	movff	___fladd@b+2,?___fladd+2
  2834  0024C4  C0E9  F0E9         	movff	___fladd@b+3,?___fladd+3
  2835  0024C8                     l1115:
  2836                           
  2837                           ; BSR set to: 0
  2838  0024C8  0012               	return		;funcret
  2839  0024CA                     __end_of___fladd:
  2840                           	callstack 0
  2841                           
  2842 ;; *************** function ___flmul *****************
  2843 ;; Defined at:
  2844 ;;		line 8 in file "C:\Program Files\Microchip\xc8\v2.31\pic\sources\c99\common\sprcmul.c"
  2845 ;; Parameters:    Size  Location     Type
  2846 ;;  b               4   22[COMRAM] unsigned char 
  2847 ;;  a               4   26[COMRAM] unsigned char 
  2848 ;; Auto vars:     Size  Location     Type
  2849 ;;  prod            4   41[COMRAM] struct .
  2850 ;;  grs             4   35[COMRAM] unsigned long 
  2851 ;;  temp            2   45[COMRAM] struct .
  2852 ;;  bexp            1   40[COMRAM] unsigned char 
  2853 ;;  aexp            1   39[COMRAM] unsigned char 
  2854 ;;  sign            1   34[COMRAM] unsigned char 
  2855 ;; Return value:  Size  Location     Type
  2856 ;;                  4   22[COMRAM] unsigned char 
  2857 ;; Registers used:
  2858 ;;		wreg, status,2, status,0, prodl, prodh
  2859 ;; Tracked objects:
  2860 ;;		On entry : 0/0
  2861 ;;		On exit  : 0/0
  2862 ;;		Unchanged: 0/0
  2863 ;; Data sizes:     COMRAM   BANK0   BANK1   BANK2   BANK3   BANK4   BANK5   BANK6   BANK7   BANK8   BANK9  BANK10  BANK1
      +1  BANK12  BANK13  BANK14  BANK15  BANK16  BANK17  BANK18  BANK19  BANK20  BANK21  BANK22  BANK23  BANK24  BANK25  BANK2
      +6  BANK27  BANK28  BANK29  BANK30  BANK31
  2864 ;;      Params:         8       0       0       0       0       0       0       0       0       0       0       0       
      +0       0       0       0       0       0       0       0       0       0       0       0       0       0       0       
      +0       0       0       0       0       0
  2865 ;;      Locals:        13       0       0       0       0       0       0       0       0       0       0       0       
      +0       0       0       0       0       0       0       0       0       0       0       0       0       0       0       
      +0       0       0       0       0       0
  2866 ;;      Temps:          4       0       0       0       0       0       0       0       0       0       0       0       
      +0       0       0       0       0       0       0       0       0       0       0       0       0       0       0       
      +0       0       0       0       0       0
  2867 ;;      Totals:        25       0       0       0       0       0       0       0       0       0       0       0       
      +0       0       0       0       0       0       0       0       0       0       0       0       0       0       0       
      +0       0       0       0       0       0
  2868 ;;Total ram usage:       25 bytes
  2869 ;; Hardware stack levels used:    1
  2870 ;; Hardware stack levels required when called:    3
  2871 ;; This function calls:
  2872 ;;		Nothing
  2873 ;; This function is called by:
  2874 ;;		_initial_count
  2875 ;;		_scale_read
  2876 ;;		_filtrar_seccion_iir
  2877 ;; This function uses a non-reentrant model
  2878 ;;
  2879                           
  2880                           	psect	text8
  2881  0024CA                     __ptext8:
  2882                           	callstack 0
  2883  0024CA                     ___flmul:
  2884                           	callstack 25
  2885  0024CA  501A               	movf	(___flmul@b+3)^0,w,c
  2886  0024CC  0B80               	andlw	128
  2887  0024CE  6E23               	movwf	___flmul@sign^0,c
  2888  0024D0  501A               	movf	(___flmul@b+3)^0,w,c
  2889  0024D2  241A               	addwf	(___flmul@b+3)^0,w,c
  2890  0024D4  6E29               	movwf	___flmul@bexp^0,c
  2891  0024D6  AE19               	btfss	(___flmul@b+2)^0,7,c
  2892  0024D8  EF70  F012         	goto	u1701
  2893  0024DC  EF72  F012         	goto	u1700
  2894  0024E0                     u1701:
  2895  0024E0  EF73  F012         	goto	l2449
  2896  0024E4                     u1700:
  2897  0024E4  8029               	bsf	___flmul@bexp^0,0,c
  2898  0024E6                     l2449:
  2899  0024E6  5029               	movf	___flmul@bexp^0,w,c
  2900  0024E8  B4D8               	btfsc	status,2,c
  2901  0024EA  EF79  F012         	goto	u1711
  2902  0024EE  EF7B  F012         	goto	u1710
  2903  0024F2                     u1711:
  2904  0024F2  EF8E  F012         	goto	l2457
  2905  0024F6                     u1710:
  2906  0024F6  2829               	incf	___flmul@bexp^0,w,c
  2907  0024F8  A4D8               	btfss	status,2,c
  2908  0024FA  EF81  F012         	goto	u1721
  2909  0024FE  EF83  F012         	goto	u1720
  2910  002502                     u1721:
  2911  002502  EF8B  F012         	goto	l2455
  2912  002506                     u1720:
  2913  002506  0E00               	movlw	0
  2914  002508  6E17               	movwf	___flmul@b^0,c
  2915  00250A  0E00               	movlw	0
  2916  00250C  6E18               	movwf	(___flmul@b+1)^0,c
  2917  00250E  0E00               	movlw	0
  2918  002510  6E19               	movwf	(___flmul@b+2)^0,c
  2919  002512  0E00               	movlw	0
  2920  002514  6E1A               	movwf	(___flmul@b+3)^0,c
  2921  002516                     l2455:
  2922  002516  8E19               	bsf	(___flmul@b+2)^0,7,c
  2923  002518  EF96  F012         	goto	l2459
  2924  00251C                     l2457:
  2925  00251C  0E00               	movlw	0
  2926  00251E  6E17               	movwf	___flmul@b^0,c
  2927  002520  0E00               	movlw	0
  2928  002522  6E18               	movwf	(___flmul@b+1)^0,c
  2929  002524  0E00               	movlw	0
  2930  002526  6E19               	movwf	(___flmul@b+2)^0,c
  2931  002528  0E00               	movlw	0
  2932  00252A  6E1A               	movwf	(___flmul@b+3)^0,c
  2933  00252C                     l2459:
  2934  00252C  501E               	movf	(___flmul@a+3)^0,w,c
  2935  00252E  0B80               	andlw	128
  2936  002530  1A23               	xorwf	___flmul@sign^0,f,c
  2937  002532  501E               	movf	(___flmul@a+3)^0,w,c
  2938  002534  241E               	addwf	(___flmul@a+3)^0,w,c
  2939  002536  6E28               	movwf	___flmul@aexp^0,c
  2940  002538  AE1D               	btfss	(___flmul@a+2)^0,7,c
  2941  00253A  EFA1  F012         	goto	u1731
  2942  00253E  EFA3  F012         	goto	u1730
  2943  002542                     u1731:
  2944  002542  EFA4  F012         	goto	l2467
  2945  002546                     u1730:
  2946  002546  8028               	bsf	___flmul@aexp^0,0,c
  2947  002548                     l2467:
  2948  002548  5028               	movf	___flmul@aexp^0,w,c
  2949  00254A  B4D8               	btfsc	status,2,c
  2950  00254C  EFAA  F012         	goto	u1741
  2951  002550  EFAC  F012         	goto	u1740
  2952  002554                     u1741:
  2953  002554  EFBF  F012         	goto	l2475
  2954  002558                     u1740:
  2955  002558  2828               	incf	___flmul@aexp^0,w,c
  2956  00255A  A4D8               	btfss	status,2,c
  2957  00255C  EFB2  F012         	goto	u1751
  2958  002560  EFB4  F012         	goto	u1750
  2959  002564                     u1751:
  2960  002564  EFBC  F012         	goto	l2473
  2961  002568                     u1750:
  2962  002568  0E00               	movlw	0
  2963  00256A  6E1B               	movwf	___flmul@a^0,c
  2964  00256C  0E00               	movlw	0
  2965  00256E  6E1C               	movwf	(___flmul@a+1)^0,c
  2966  002570  0E00               	movlw	0
  2967  002572  6E1D               	movwf	(___flmul@a+2)^0,c
  2968  002574  0E00               	movlw	0
  2969  002576  6E1E               	movwf	(___flmul@a+3)^0,c
  2970  002578                     l2473:
  2971  002578  8E1D               	bsf	(___flmul@a+2)^0,7,c
  2972  00257A  EFC7  F012         	goto	l1192
  2973  00257E                     l2475:
  2974  00257E  0E00               	movlw	0
  2975  002580  6E1B               	movwf	___flmul@a^0,c
  2976  002582  0E00               	movlw	0
  2977  002584  6E1C               	movwf	(___flmul@a+1)^0,c
  2978  002586  0E00               	movlw	0
  2979  002588  6E1D               	movwf	(___flmul@a+2)^0,c
  2980  00258A  0E00               	movlw	0
  2981  00258C  6E1E               	movwf	(___flmul@a+3)^0,c
  2982  00258E                     l1192:
  2983  00258E  5028               	movf	___flmul@aexp^0,w,c
  2984  002590  B4D8               	btfsc	status,2,c
  2985  002592  EFCD  F012         	goto	u1761
  2986  002596  EFCF  F012         	goto	u1760
  2987  00259A                     u1761:
  2988  00259A  EFD7  F012         	goto	l2479
  2989  00259E                     u1760:
  2990  00259E  5029               	movf	___flmul@bexp^0,w,c
  2991  0025A0  A4D8               	btfss	status,2,c
  2992  0025A2  EFD5  F012         	goto	u1771
  2993  0025A6  EFD7  F012         	goto	u1770
  2994  0025AA                     u1771:
  2995  0025AA  EFE1  F012         	goto	l2483
  2996  0025AE                     u1770:
  2997  0025AE                     l2479:
  2998  0025AE  0E00               	movlw	0
  2999  0025B0  6E17               	movwf	?___flmul^0,c
  3000  0025B2  0E00               	movlw	0
  3001  0025B4  6E18               	movwf	(?___flmul+1)^0,c
  3002  0025B6  0E00               	movlw	0
  3003  0025B8  6E19               	movwf	(?___flmul+2)^0,c
  3004  0025BA  0E00               	movlw	0
  3005  0025BC  6E1A               	movwf	(?___flmul+3)^0,c
  3006  0025BE  EF8B  F014         	goto	l1196
  3007  0025C2                     l2483:
  3008  0025C2  501D               	movf	(___flmul@a+2)^0,w,c
  3009  0025C4  0217               	mulwf	___flmul@b^0,c
  3010  0025C6  006F FFCC  F02E    	movff	prodl,___flmul@temp
  3011  0025CC  006F FFD0  F02F    	movff	prodh,___flmul@temp+1
  3012  0025D2  502E               	movf	___flmul@temp^0,w,c
  3013  0025D4  6E24               	movwf	___flmul@grs^0,c
  3014  0025D6  6A25               	clrf	(___flmul@grs+1)^0,c
  3015  0025D8  6A26               	clrf	(___flmul@grs+2)^0,c
  3016  0025DA  6A27               	clrf	(___flmul@grs+3)^0,c
  3017  0025DC  502F               	movf	(___flmul@temp+1)^0,w,c
  3018  0025DE  6E2A               	movwf	___flmul@prod^0,c
  3019  0025E0  6A2B               	clrf	(___flmul@prod+1)^0,c
  3020  0025E2  6A2C               	clrf	(___flmul@prod+2)^0,c
  3021  0025E4  6A2D               	clrf	(___flmul@prod+3)^0,c
  3022  0025E6  501C               	movf	(___flmul@a+1)^0,w,c
  3023  0025E8  0218               	mulwf	(___flmul@b+1)^0,c
  3024  0025EA  006F FFCC  F02E    	movff	prodl,___flmul@temp
  3025  0025F0  006F FFD0  F02F    	movff	prodh,___flmul@temp+1
  3026  0025F6  502E               	movf	___flmul@temp^0,w,c
  3027  0025F8  2624               	addwf	___flmul@grs^0,f,c
  3028  0025FA  0E00               	movlw	0
  3029  0025FC  2225               	addwfc	(___flmul@grs+1)^0,f,c
  3030  0025FE  2226               	addwfc	(___flmul@grs+2)^0,f,c
  3031  002600  2227               	addwfc	(___flmul@grs+3)^0,f,c
  3032  002602  502F               	movf	(___flmul@temp+1)^0,w,c
  3033  002604  262A               	addwf	___flmul@prod^0,f,c
  3034  002606  0E00               	movlw	0
  3035  002608  222B               	addwfc	(___flmul@prod+1)^0,f,c
  3036  00260A  222C               	addwfc	(___flmul@prod+2)^0,f,c
  3037  00260C  222D               	addwfc	(___flmul@prod+3)^0,f,c
  3038  00260E  501B               	movf	___flmul@a^0,w,c
  3039  002610  0219               	mulwf	(___flmul@b+2)^0,c
  3040  002612  006F FFCC  F02E    	movff	prodl,___flmul@temp
  3041  002618  006F FFD0  F02F    	movff	prodh,___flmul@temp+1
  3042  00261E  502E               	movf	___flmul@temp^0,w,c
  3043  002620  2624               	addwf	___flmul@grs^0,f,c
  3044  002622  0E00               	movlw	0
  3045  002624  2225               	addwfc	(___flmul@grs+1)^0,f,c
  3046  002626  2226               	addwfc	(___flmul@grs+2)^0,f,c
  3047  002628  2227               	addwfc	(___flmul@grs+3)^0,f,c
  3048  00262A  502F               	movf	(___flmul@temp+1)^0,w,c
  3049  00262C  262A               	addwf	___flmul@prod^0,f,c
  3050  00262E  0E00               	movlw	0
  3051  002630  222B               	addwfc	(___flmul@prod+1)^0,f,c
  3052  002632  222C               	addwfc	(___flmul@prod+2)^0,f,c
  3053  002634  222D               	addwfc	(___flmul@prod+3)^0,f,c
  3054  002636  C026  F027         	movff	___flmul@grs+2,___flmul@grs+3
  3055  00263A  C025  F026         	movff	___flmul@grs+1,___flmul@grs+2
  3056  00263E  C024  F025         	movff	___flmul@grs,___flmul@grs+1
  3057  002642  6A24               	clrf	___flmul@grs^0,c
  3058  002644  501B               	movf	___flmul@a^0,w,c
  3059  002646  0218               	mulwf	(___flmul@b+1)^0,c
  3060  002648  006F FFCC  F02E    	movff	prodl,___flmul@temp
  3061  00264E  006F FFD0  F02F    	movff	prodh,___flmul@temp+1
  3062  002654  502E               	movf	___flmul@temp^0,w,c
  3063  002656  2624               	addwf	___flmul@grs^0,f,c
  3064  002658  502F               	movf	(___flmul@temp+1)^0,w,c
  3065  00265A  2225               	addwfc	(___flmul@grs+1)^0,f,c
  3066  00265C  0E00               	movlw	0
  3067  00265E  2226               	addwfc	(___flmul@grs+2)^0,f,c
  3068  002660  0E00               	movlw	0
  3069  002662  2227               	addwfc	(___flmul@grs+3)^0,f,c
  3070  002664  501C               	movf	(___flmul@a+1)^0,w,c
  3071  002666  0217               	mulwf	___flmul@b^0,c
  3072  002668  006F FFCC  F02E    	movff	prodl,___flmul@temp
  3073  00266E  006F FFD0  F02F    	movff	prodh,___flmul@temp+1
  3074  002674  502E               	movf	___flmul@temp^0,w,c
  3075  002676  2624               	addwf	___flmul@grs^0,f,c
  3076  002678  502F               	movf	(___flmul@temp+1)^0,w,c
  3077  00267A  2225               	addwfc	(___flmul@grs+1)^0,f,c
  3078  00267C  0E00               	movlw	0
  3079  00267E  2226               	addwfc	(___flmul@grs+2)^0,f,c
  3080  002680  0E00               	movlw	0
  3081  002682  2227               	addwfc	(___flmul@grs+3)^0,f,c
  3082  002684  C026  F027         	movff	___flmul@grs+2,___flmul@grs+3
  3083  002688  C025  F026         	movff	___flmul@grs+1,___flmul@grs+2
  3084  00268C  C024  F025         	movff	___flmul@grs,___flmul@grs+1
  3085  002690  6A24               	clrf	___flmul@grs^0,c
  3086  002692  501B               	movf	___flmul@a^0,w,c
  3087  002694  0217               	mulwf	___flmul@b^0,c
  3088  002696  006F FFCC  F02E    	movff	prodl,___flmul@temp
  3089  00269C  006F FFD0  F02F    	movff	prodh,___flmul@temp+1
  3090  0026A2  502E               	movf	___flmul@temp^0,w,c
  3091  0026A4  2624               	addwf	___flmul@grs^0,f,c
  3092  0026A6  502F               	movf	(___flmul@temp+1)^0,w,c
  3093  0026A8  2225               	addwfc	(___flmul@grs+1)^0,f,c
  3094  0026AA  0E00               	movlw	0
  3095  0026AC  2226               	addwfc	(___flmul@grs+2)^0,f,c
  3096  0026AE  0E00               	movlw	0
  3097  0026B0  2227               	addwfc	(___flmul@grs+3)^0,f,c
  3098  0026B2  501D               	movf	(___flmul@a+2)^0,w,c
  3099  0026B4  0218               	mulwf	(___flmul@b+1)^0,c
  3100  0026B6  006F FFCC  F02E    	movff	prodl,___flmul@temp
  3101  0026BC  006F FFD0  F02F    	movff	prodh,___flmul@temp+1
  3102  0026C2  502E               	movf	___flmul@temp^0,w,c
  3103  0026C4  262A               	addwf	___flmul@prod^0,f,c
  3104  0026C6  502F               	movf	(___flmul@temp+1)^0,w,c
  3105  0026C8  222B               	addwfc	(___flmul@prod+1)^0,f,c
  3106  0026CA  0E00               	movlw	0
  3107  0026CC  222C               	addwfc	(___flmul@prod+2)^0,f,c
  3108  0026CE  0E00               	movlw	0
  3109  0026D0  222D               	addwfc	(___flmul@prod+3)^0,f,c
  3110  0026D2  501C               	movf	(___flmul@a+1)^0,w,c
  3111  0026D4  0219               	mulwf	(___flmul@b+2)^0,c
  3112  0026D6  006F FFCC  F02E    	movff	prodl,___flmul@temp
  3113  0026DC  006F FFD0  F02F    	movff	prodh,___flmul@temp+1
  3114  0026E2  502E               	movf	___flmul@temp^0,w,c
  3115  0026E4  262A               	addwf	___flmul@prod^0,f,c
  3116  0026E6  502F               	movf	(___flmul@temp+1)^0,w,c
  3117  0026E8  222B               	addwfc	(___flmul@prod+1)^0,f,c
  3118  0026EA  0E00               	movlw	0
  3119  0026EC  222C               	addwfc	(___flmul@prod+2)^0,f,c
  3120  0026EE  0E00               	movlw	0
  3121  0026F0  222D               	addwfc	(___flmul@prod+3)^0,f,c
  3122  0026F2  501D               	movf	(___flmul@a+2)^0,w,c
  3123  0026F4  0219               	mulwf	(___flmul@b+2)^0,c
  3124  0026F6  006F FFCC  F02E    	movff	prodl,___flmul@temp
  3125  0026FC  006F FFD0  F02F    	movff	prodh,___flmul@temp+1
  3126  002702  502E               	movf	___flmul@temp^0,w,c
  3127  002704  6E1F               	movwf	??___flmul^0,c
  3128  002706  502F               	movf	(___flmul@temp+1)^0,w,c
  3129  002708  6E20               	movwf	(??___flmul+1)^0,c
  3130  00270A  6A21               	clrf	(??___flmul+2)^0,c
  3131  00270C  6A22               	clrf	(??___flmul+3)^0,c
  3132  00270E  C021  F022         	movff	??___flmul+2,??___flmul+3
  3133  002712  C020  F021         	movff	??___flmul+1,??___flmul+2
  3134  002716  C01F  F020         	movff	??___flmul,??___flmul+1
  3135  00271A  6A1F               	clrf	??___flmul^0,c
  3136  00271C  501F               	movf	??___flmul^0,w,c
  3137  00271E  262A               	addwf	___flmul@prod^0,f,c
  3138  002720  5020               	movf	(??___flmul+1)^0,w,c
  3139  002722  222B               	addwfc	(___flmul@prod+1)^0,f,c
  3140  002724  5021               	movf	(??___flmul+2)^0,w,c
  3141  002726  222C               	addwfc	(___flmul@prod+2)^0,f,c
  3142  002728  5022               	movf	(??___flmul+3)^0,w,c
  3143  00272A  222D               	addwfc	(___flmul@prod+3)^0,f,c
  3144  00272C  C024  F01F         	movff	___flmul@grs,??___flmul
  3145  002730  C025  F020         	movff	___flmul@grs+1,??___flmul+1
  3146  002734  C026  F021         	movff	___flmul@grs+2,??___flmul+2
  3147  002738  C027  F022         	movff	___flmul@grs+3,??___flmul+3
  3148  00273C  0E19               	movlw	25
  3149  00273E  EFA6  F013         	goto	u1780
  3150  002742                     u1785:
  3151  002742  90D8               	bcf	status,0,c
  3152  002744  3222               	rrcf	(??___flmul+3)^0,f,c
  3153  002746  3221               	rrcf	(??___flmul+2)^0,f,c
  3154  002748  3220               	rrcf	(??___flmul+1)^0,f,c
  3155  00274A  321F               	rrcf	??___flmul^0,f,c
  3156  00274C                     u1780:
  3157  00274C  2EE8               	decfsz	wreg,f,c
  3158  00274E  EFA1  F013         	goto	u1785
  3159  002752  501F               	movf	??___flmul^0,w,c
  3160  002754  262A               	addwf	___flmul@prod^0,f,c
  3161  002756  5020               	movf	(??___flmul+1)^0,w,c
  3162  002758  222B               	addwfc	(___flmul@prod+1)^0,f,c
  3163  00275A  5021               	movf	(??___flmul+2)^0,w,c
  3164  00275C  222C               	addwfc	(___flmul@prod+2)^0,f,c
  3165  00275E  5022               	movf	(??___flmul+3)^0,w,c
  3166  002760  222D               	addwfc	(___flmul@prod+3)^0,f,c
  3167  002762  C026  F027         	movff	___flmul@grs+2,___flmul@grs+3
  3168  002766  C025  F026         	movff	___flmul@grs+1,___flmul@grs+2
  3169  00276A  C024  F025         	movff	___flmul@grs,___flmul@grs+1
  3170  00276E  6A24               	clrf	___flmul@grs^0,c
  3171  002770  5028               	movf	___flmul@aexp^0,w,c
  3172  002772  C029  F01F         	movff	___flmul@bexp,??___flmul
  3173  002776  6A20               	clrf	(??___flmul+1)^0,c
  3174  002778  261F               	addwf	??___flmul^0,f,c
  3175  00277A  0E00               	movlw	0
  3176  00277C  2220               	addwfc	(??___flmul+1)^0,f,c
  3177  00277E  0E82               	movlw	130
  3178  002780  241F               	addwf	??___flmul^0,w,c
  3179  002782  6E2E               	movwf	___flmul@temp^0,c
  3180  002784  0EFF               	movlw	255
  3181  002786  2020               	addwfc	(??___flmul+1)^0,w,c
  3182  002788  6E2F               	movwf	(___flmul@temp+1)^0,c
  3183  00278A  EFDC  F013         	goto	l2531
  3184  00278E                     l2525:
  3185  00278E  90D8               	bcf	status,0,c
  3186  002790  362A               	rlcf	___flmul@prod^0,f,c
  3187  002792  362B               	rlcf	(___flmul@prod+1)^0,f,c
  3188  002794  362C               	rlcf	(___flmul@prod+2)^0,f,c
  3189  002796  362D               	rlcf	(___flmul@prod+3)^0,f,c
  3190  002798  AE27               	btfss	(___flmul@grs+3)^0,7,c
  3191  00279A  EFD1  F013         	goto	u1791
  3192  00279E  EFD3  F013         	goto	u1790
  3193  0027A2                     u1791:
  3194  0027A2  EFD4  F013         	goto	l1199
  3195  0027A6                     u1790:
  3196  0027A6  802A               	bsf	___flmul@prod^0,0,c
  3197  0027A8                     l1199:
  3198  0027A8  90D8               	bcf	status,0,c
  3199  0027AA  3624               	rlcf	___flmul@grs^0,f,c
  3200  0027AC  3625               	rlcf	(___flmul@grs+1)^0,f,c
  3201  0027AE  3626               	rlcf	(___flmul@grs+2)^0,f,c
  3202  0027B0  3627               	rlcf	(___flmul@grs+3)^0,f,c
  3203  0027B2  062E               	decf	___flmul@temp^0,f,c
  3204  0027B4  A0D8               	btfss	status,0,c
  3205  0027B6  062F               	decf	(___flmul@temp+1)^0,f,c
  3206  0027B8                     l2531:
  3207  0027B8  AE2C               	btfss	(___flmul@prod+2)^0,7,c
  3208  0027BA  EFE1  F013         	goto	u1801
  3209  0027BE  EFE3  F013         	goto	u1800
  3210  0027C2                     u1801:
  3211  0027C2  EFC7  F013         	goto	l2525
  3212  0027C6                     u1800:
  3213  0027C6  0E00               	movlw	0
  3214  0027C8  6E28               	movwf	___flmul@aexp^0,c
  3215  0027CA  AE27               	btfss	(___flmul@grs+3)^0,7,c
  3216  0027CC  EFEA  F013         	goto	u1811
  3217  0027D0  EFEC  F013         	goto	u1810
  3218  0027D4                     u1811:
  3219  0027D4  EF10  F014         	goto	l1201
  3220  0027D8                     u1810:
  3221  0027D8  0EFF               	movlw	255
  3222  0027DA  1424               	andwf	___flmul@grs^0,w,c
  3223  0027DC  6E1F               	movwf	??___flmul^0,c
  3224  0027DE  0EFF               	movlw	255
  3225  0027E0  1425               	andwf	(___flmul@grs+1)^0,w,c
  3226  0027E2  6E20               	movwf	(??___flmul+1)^0,c
  3227  0027E4  0EFF               	movlw	255
  3228  0027E6  1426               	andwf	(___flmul@grs+2)^0,w,c
  3229  0027E8  6E21               	movwf	(??___flmul+2)^0,c
  3230  0027EA  0E7F               	movlw	127
  3231  0027EC  1427               	andwf	(___flmul@grs+3)^0,w,c
  3232  0027EE  6E22               	movwf	(??___flmul+3)^0,c
  3233  0027F0  501F               	movf	??___flmul^0,w,c
  3234  0027F2  1020               	iorwf	(??___flmul+1)^0,w,c
  3235  0027F4  1021               	iorwf	(??___flmul+2)^0,w,c
  3236  0027F6  1022               	iorwf	(??___flmul+3)^0,w,c
  3237  0027F8  B4D8               	btfsc	status,2,c
  3238  0027FA  EF01  F014         	goto	u1821
  3239  0027FE  EF03  F014         	goto	u1820
  3240  002802                     u1821:
  3241  002802  EF07  F014         	goto	l1202
  3242  002806                     u1820:
  3243  002806                     l2539:
  3244  002806  0E01               	movlw	1
  3245  002808  6E28               	movwf	___flmul@aexp^0,c
  3246  00280A  EF10  F014         	goto	l1201
  3247  00280E                     l1202:
  3248  00280E  A02A               	btfss	___flmul@prod^0,0,c
  3249  002810  EF0C  F014         	goto	u1831
  3250  002814  EF0E  F014         	goto	u1830
  3251  002818                     u1831:
  3252  002818  EF10  F014         	goto	l1201
  3253  00281C                     u1830:
  3254  00281C  EF03  F014         	goto	l2539
  3255  002820                     l1201:
  3256  002820  5028               	movf	___flmul@aexp^0,w,c
  3257  002822  B4D8               	btfsc	status,2,c
  3258  002824  EF16  F014         	goto	u1841
  3259  002828  EF18  F014         	goto	u1840
  3260  00282C                     u1841:
  3261  00282C  EF3C  F014         	goto	l2551
  3262  002830                     u1840:
  3263  002830  0E01               	movlw	1
  3264  002832  262A               	addwf	___flmul@prod^0,f,c
  3265  002834  0E00               	movlw	0
  3266  002836  222B               	addwfc	(___flmul@prod+1)^0,f,c
  3267  002838  222C               	addwfc	(___flmul@prod+2)^0,f,c
  3268  00283A  222D               	addwfc	(___flmul@prod+3)^0,f,c
  3269  00283C  A02D               	btfss	(___flmul@prod+3)^0,0,c
  3270  00283E  EF23  F014         	goto	u1851
  3271  002842  EF25  F014         	goto	u1850
  3272  002846                     u1851:
  3273  002846  EF3C  F014         	goto	l2551
  3274  00284A                     u1850:
  3275  00284A  C02A  F01F         	movff	___flmul@prod,??___flmul
  3276  00284E  C02B  F020         	movff	___flmul@prod+1,??___flmul+1
  3277  002852  C02C  F021         	movff	___flmul@prod+2,??___flmul+2
  3278  002856  C02D  F022         	movff	___flmul@prod+3,??___flmul+3
  3279  00285A  3422               	rlcf	(??___flmul+3)^0,w,c
  3280  00285C  3222               	rrcf	(??___flmul+3)^0,f,c
  3281  00285E  3221               	rrcf	(??___flmul+2)^0,f,c
  3282  002860  3220               	rrcf	(??___flmul+1)^0,f,c
  3283  002862  321F               	rrcf	??___flmul^0,f,c
  3284  002864  C01F  F02A         	movff	??___flmul,___flmul@prod
  3285  002868  C020  F02B         	movff	??___flmul+1,___flmul@prod+1
  3286  00286C  C021  F02C         	movff	??___flmul+2,___flmul@prod+2
  3287  002870  C022  F02D         	movff	??___flmul+3,___flmul@prod+3
  3288  002874  4A2E               	infsnz	___flmul@temp^0,f,c
  3289  002876  2A2F               	incf	(___flmul@temp+1)^0,f,c
  3290  002878                     l2551:
  3291  002878  BE2F               	btfsc	(___flmul@temp+1)^0,7,c
  3292  00287A  EF47  F014         	goto	u1861
  3293  00287E  502F               	movf	(___flmul@temp+1)^0,w,c
  3294  002880  E108               	bnz	u1860
  3295  002882  282E               	incf	___flmul@temp^0,w,c
  3296  002884  A0D8               	btfss	status,0,c
  3297  002886  EF47  F014         	goto	u1861
  3298  00288A  EF49  F014         	goto	u1860
  3299  00288E                     u1861:
  3300  00288E  EF53  F014         	goto	l2555
  3301  002892                     u1860:
  3302  002892  0E00               	movlw	0
  3303  002894  6E2A               	movwf	___flmul@prod^0,c
  3304  002896  0E00               	movlw	0
  3305  002898  6E2B               	movwf	(___flmul@prod+1)^0,c
  3306  00289A  0E80               	movlw	128
  3307  00289C  6E2C               	movwf	(___flmul@prod+2)^0,c
  3308  00289E  0E7F               	movlw	127
  3309  0028A0  6E2D               	movwf	(___flmul@prod+3)^0,c
  3310  0028A2  EF81  F014         	goto	l2567
  3311  0028A6                     l2555:
  3312  0028A6  BE2F               	btfsc	(___flmul@temp+1)^0,7,c
  3313  0028A8  EF60  F014         	goto	u1870
  3314  0028AC  502F               	movf	(___flmul@temp+1)^0,w,c
  3315  0028AE  E106               	bnz	u1871
  3316  0028B0  042E               	decf	___flmul@temp^0,w,c
  3317  0028B2  B0D8               	btfsc	status,0,c
  3318  0028B4  EF5E  F014         	goto	u1871
  3319  0028B8  EF60  F014         	goto	u1870
  3320  0028BC                     u1871:
  3321  0028BC  EF6C  F014         	goto	l1209
  3322  0028C0                     u1870:
  3323  0028C0  0E00               	movlw	0
  3324  0028C2  6E2A               	movwf	___flmul@prod^0,c
  3325  0028C4  0E00               	movlw	0
  3326  0028C6  6E2B               	movwf	(___flmul@prod+1)^0,c
  3327  0028C8  0E00               	movlw	0
  3328  0028CA  6E2C               	movwf	(___flmul@prod+2)^0,c
  3329  0028CC  0E00               	movlw	0
  3330  0028CE  6E2D               	movwf	(___flmul@prod+3)^0,c
  3331  0028D0  0E00               	movlw	0
  3332  0028D2  6E23               	movwf	___flmul@sign^0,c
  3333  0028D4  EF81  F014         	goto	l2567
  3334  0028D8                     l1209:
  3335  0028D8  C02E  F029         	movff	___flmul@temp,___flmul@bexp
  3336  0028DC  0EFF               	movlw	255
  3337  0028DE  162A               	andwf	___flmul@prod^0,f,c
  3338  0028E0  0EFF               	movlw	255
  3339  0028E2  162B               	andwf	(___flmul@prod+1)^0,f,c
  3340  0028E4  0E7F               	movlw	127
  3341  0028E6  162C               	andwf	(___flmul@prod+2)^0,f,c
  3342  0028E8  0E00               	movlw	0
  3343  0028EA  162D               	andwf	(___flmul@prod+3)^0,f,c
  3344  0028EC  A029               	btfss	___flmul@bexp^0,0,c
  3345  0028EE  EF7B  F014         	goto	u1881
  3346  0028F2  EF7D  F014         	goto	u1880
  3347  0028F6                     u1881:
  3348  0028F6  EF7E  F014         	goto	l2565
  3349  0028FA                     u1880:
  3350  0028FA  8E2C               	bsf	(___flmul@prod+2)^0,7,c
  3351  0028FC                     l2565:
  3352  0028FC  90D8               	bcf	status,0,c
  3353  0028FE  3029               	rrcf	___flmul@bexp^0,w,c
  3354  002900  6E2D               	movwf	(___flmul@prod+3)^0,c
  3355  002902                     l2567:
  3356  002902  5023               	movf	___flmul@sign^0,w,c
  3357  002904  122D               	iorwf	(___flmul@prod+3)^0,f,c
  3358  002906  C02A  F017         	movff	___flmul@prod,?___flmul
  3359  00290A  C02B  F018         	movff	___flmul@prod+1,?___flmul+1
  3360  00290E  C02C  F019         	movff	___flmul@prod+2,?___flmul+2
  3361  002912  C02D  F01A         	movff	___flmul@prod+3,?___flmul+3
  3362  002916                     l1196:
  3363  002916  0012               	return		;funcret
  3364  002918                     __end_of___flmul:
  3365                           	callstack 0
  3366                           
  3367 ;; *************** function _send_array *****************
  3368 ;; Defined at:
  3369 ;;		line 85 in file "uart.c"
  3370 ;; Parameters:    Size  Location     Type
  3371 ;;  array           2   22[COMRAM] PTR unsigned char 
  3372 ;;		 -> lecturas_ascii(9), 
  3373 ;; Auto vars:     Size  Location     Type
  3374 ;;  i               2   27[COMRAM] int 
  3375 ;; Return value:  Size  Location     Type
  3376 ;;                  1    wreg      void 
  3377 ;; Registers used:
  3378 ;;		wreg, fsr1l, fsr1h, fsr2l, fsr2h, status,2, status,0
  3379 ;; Tracked objects:
  3380 ;;		On entry : 0/0
  3381 ;;		On exit  : 0/0
  3382 ;;		Unchanged: 0/0
  3383 ;; Data sizes:     COMRAM   BANK0   BANK1   BANK2   BANK3   BANK4   BANK5   BANK6   BANK7   BANK8   BANK9  BANK10  BANK1
      +1  BANK12  BANK13  BANK14  BANK15  BANK16  BANK17  BANK18  BANK19  BANK20  BANK21  BANK22  BANK23  BANK24  BANK25  BANK2
      +6  BANK27  BANK28  BANK29  BANK30  BANK31
  3384 ;;      Params:         2       0       0       0       0       0       0       0       0       0       0       0       
      +0       0       0       0       0       0       0       0       0       0       0       0       0       0       0       
      +0       0       0       0       0       0
  3385 ;;      Locals:         2       0       0       0       0       0       0       0       0       0       0       0       
      +0       0       0       0       0       0       0       0       0       0       0       0       0       0       0       
      +0       0       0       0       0       0
  3386 ;;      Temps:          3       0       0       0       0       0       0       0       0       0       0       0       
      +0       0       0       0       0       0       0       0       0       0       0       0       0       0       0       
      +0       0       0       0       0       0
  3387 ;;      Totals:         7       0       0       0       0       0       0       0       0       0       0       0       
      +0       0       0       0       0       0       0       0       0       0       0       0       0       0       0       
      +0       0       0       0       0       0
  3388 ;;Total ram usage:        7 bytes
  3389 ;; Hardware stack levels used:    1
  3390 ;; Hardware stack levels required when called:    3
  3391 ;; This function calls:
  3392 ;;		Nothing
  3393 ;; This function is called by:
  3394 ;;		_main
  3395 ;; This function uses a non-reentrant model
  3396 ;;
  3397                           
  3398                           	psect	text9
  3399  003AF6                     __ptext9:
  3400                           	callstack 0
  3401  003AF6                     _send_array:
  3402                           	callstack 27
  3403  003AF6                     
  3404                           ;uart.c: 86:     for(int i = 0; i<len_buffertx; i++){
  3405  003AF6  0E00               	movlw	0
  3406  003AF8  6E1D               	movwf	(send_array@i+1)^0,c
  3407  003AFA  0E00               	movlw	0
  3408  003AFC  6E1C               	movwf	send_array@i^0,c
  3409  003AFE  EF92  F01D         	goto	l3021
  3410  003B02                     l3017:
  3411                           
  3412                           ;uart.c: 87:         buffertx[i] = array[i];
  3413  003B02  501C               	movf	send_array@i^0,w,c
  3414  003B04  2417               	addwf	send_array@array^0,w,c
  3415  003B06  6ED9               	movwf	fsr2l,c
  3416  003B08  501D               	movf	(send_array@i+1)^0,w,c
  3417  003B0A  2018               	addwfc	(send_array@array+1)^0,w,c
  3418  003B0C  6EDA               	movwf	fsr2h,c
  3419  003B0E  0EA7               	movlw	low _buffertx
  3420  003B10  241C               	addwf	send_array@i^0,w,c
  3421  003B12  6EE1               	movwf	fsr1l,c
  3422  003B14  0E00               	movlw	high _buffertx
  3423  003B16  201D               	addwfc	(send_array@i+1)^0,w,c
  3424  003B18  6EE2               	movwf	fsr1h,c
  3425  003B1A  006F FF7F FFE7     	movff	indf2,indf1
  3426  003B20                     
  3427                           ;uart.c: 88:     }
  3428  003B20  4A1C               	infsnz	send_array@i^0,f,c
  3429  003B22  2A1D               	incf	(send_array@i+1)^0,f,c
  3430  003B24                     l3021:
  3431  003B24  5041               	movf	_len_buffertx^0,w,c
  3432  003B26  6E19               	movwf	??_send_array^0,c
  3433  003B28  6A1A               	clrf	(??_send_array+1)^0,c
  3434  003B2A  5019               	movf	??_send_array^0,w,c
  3435  003B2C  5C1C               	subwf	send_array@i^0,w,c
  3436  003B2E  501D               	movf	(send_array@i+1)^0,w,c
  3437  003B30  0A80               	xorlw	128
  3438  003B32  6E1B               	movwf	(??_send_array+2)^0,c
  3439  003B34  501A               	movf	(??_send_array+1)^0,w,c
  3440  003B36  0A80               	xorlw	128
  3441  003B38  581B               	subwfb	(??_send_array+2)^0,w,c
  3442  003B3A  A0D8               	btfss	status,0,c
  3443  003B3C  EFA2  F01D         	goto	u2421
  3444  003B40  EFA4  F01D         	goto	u2420
  3445  003B44                     u2421:
  3446  003B44  EF81  F01D         	goto	l3017
  3447  003B48                     u2420:
  3448  003B48                     
  3449                           ;uart.c: 90:     U1CON0bits.TXEN = 1;
  3450  003B48  013D               	movlb	61	; () banked
  3451  003B4A  8BF2               	bsf	242,5,b	;volatile
  3452  003B4C                     
  3453                           ; BSR set to: 61
  3454  003B4C  0012               	return		;funcret
  3455  003B4E                     __end_of_send_array:
  3456                           	callstack 0
  3457                           
  3458 ;; *************** function _multiplo *****************
  3459 ;; Defined at:
  3460 ;;		line 44 in file "timer0.c"
  3461 ;; Parameters:    Size  Location     Type
  3462 ;;  Ts              2   10[BANK1 ] PTR float 
  3463 ;;		 -> Ts(4), 
  3464 ;;  des_Ts          2   12[BANK1 ] PTR float 
  3465 ;;		 -> des_Ts(4), 
  3466 ;; Auto vars:     Size  Location     Type
  3467 ;;		None
  3468 ;; Return value:  Size  Location     Type
  3469 ;;                  2   10[BANK1 ] unsigned short 
  3470 ;; Registers used:
  3471 ;;		wreg, fsr2l, fsr2h, status,2, status,0, cstack
  3472 ;; Tracked objects:
  3473 ;;		On entry : 0/0
  3474 ;;		On exit  : 0/0
  3475 ;;		Unchanged: 0/0
  3476 ;; Data sizes:     COMRAM   BANK0   BANK1   BANK2   BANK3   BANK4   BANK5   BANK6   BANK7   BANK8   BANK9  BANK10  BANK1
      +1  BANK12  BANK13  BANK14  BANK15  BANK16  BANK17  BANK18  BANK19  BANK20  BANK21  BANK22  BANK23  BANK24  BANK25  BANK2
      +6  BANK27  BANK28  BANK29  BANK30  BANK31
  3477 ;;      Params:         0       0       4       0       0       0       0       0       0       0       0       0       
      +0       0       0       0       0       0       0       0       0       0       0       0       0       0       0       
      +0       0       0       0       0       0
  3478 ;;      Locals:         0       0       0       0       0       0       0       0       0       0       0       0       
      +0       0       0       0       0       0       0       0       0       0       0       0       0       0       0       
      +0       0       0       0       0       0
  3479 ;;      Temps:          0       0       0       0       0       0       0       0       0       0       0       0       
      +0       0       0       0       0       0       0       0       0       0       0       0       0       0       0       
      +0       0       0       0       0       0
  3480 ;;      Totals:         0       0       4       0       0       0       0       0       0       0       0       0       
      +0       0       0       0       0       0       0       0       0       0       0       0       0       0       0       
      +0       0       0       0       0       0
  3481 ;;Total ram usage:        4 bytes
  3482 ;; Hardware stack levels used:    1
  3483 ;; Hardware stack levels required when called:    4
  3484 ;; This function calls:
  3485 ;;		___fldiv
  3486 ;;		___fltol
  3487 ;; This function is called by:
  3488 ;;		_main
  3489 ;; This function uses a non-reentrant model
  3490 ;;
  3491                           
  3492                           	psect	text10
  3493  0038F2                     __ptext10:
  3494                           	callstack 0
  3495  0038F2                     _multiplo:
  3496                           	callstack 26
  3497  0038F2                     
  3498                           ;timer0.c: 45:     return (*des_Ts)/(*Ts);
  3499  0038F2  0060  F7BB  FFD9   	movff	multiplo@Ts,fsr2l
  3500  0038F8  0060  F7BF  FFDA   	movff	multiplo@Ts+1,fsr2h
  3501  0038FE  006F FF78  F029    	movff	postinc2,___fldiv@a
  3502  003904  006F FF78  F02A    	movff	postinc2,___fldiv@a+1
  3503  00390A  006F FF78  F02B    	movff	postinc2,___fldiv@a+2
  3504  003910  006F FF78  F02C    	movff	postinc2,___fldiv@a+3
  3505  003916  0060  F7C3  FFD9   	movff	multiplo@des_Ts,fsr2l
  3506  00391C  0060  F7C7  FFDA   	movff	multiplo@des_Ts+1,fsr2h
  3507  003922  006F FF78  F025    	movff	postinc2,___fldiv@b
  3508  003928  006F FF78  F026    	movff	postinc2,___fldiv@b+1
  3509  00392E  006F FF78  F027    	movff	postinc2,___fldiv@b+2
  3510  003934  006F FF78  F028    	movff	postinc2,___fldiv@b+3
  3511  00393A  EC8C  F014         	call	___fldiv	;wreg free
  3512  00393E  C025  F1E4         	movff	?___fldiv,___fltol@f1
  3513  003942  C026  F1E5         	movff	?___fldiv+1,___fltol@f1+1
  3514  003946  C027  F1E6         	movff	?___fldiv+2,___fltol@f1+2
  3515  00394A  C028  F1E7         	movff	?___fldiv+3,___fltol@f1+3
  3516  00394E  EC31  F019         	call	___fltol	;wreg free
  3517  003952  C1E4  F1EE         	movff	?___fltol,?_multiplo
  3518  003956  C1E5  F1EF         	movff	?___fltol+1,?_multiplo+1
  3519  00395A  0012               	return		;funcret
  3520  00395C                     __end_of_multiplo:
  3521                           	callstack 0
  3522                           
  3523 ;; *************** function ___fltol *****************
  3524 ;; Defined at:
  3525 ;;		line 43 in file "C:\Program Files\Microchip\xc8\v2.31\pic\sources\c99\common\fltol.c"
  3526 ;; Parameters:    Size  Location     Type
  3527 ;;  f1              4    0[BANK1 ] unsigned short 
  3528 ;; Auto vars:     Size  Location     Type
  3529 ;;  exp1            1    9[BANK1 ] unsigned char 
  3530 ;;  sign1           1    8[BANK1 ] unsigned char 
  3531 ;; Return value:  Size  Location     Type
  3532 ;;                  4    0[BANK1 ] long 
  3533 ;; Registers used:
  3534 ;;		wreg, status,2, status,0
  3535 ;; Tracked objects:
  3536 ;;		On entry : 0/0
  3537 ;;		On exit  : 0/0
  3538 ;;		Unchanged: 0/0
  3539 ;; Data sizes:     COMRAM   BANK0   BANK1   BANK2   BANK3   BANK4   BANK5   BANK6   BANK7   BANK8   BANK9  BANK10  BANK1
      +1  BANK12  BANK13  BANK14  BANK15  BANK16  BANK17  BANK18  BANK19  BANK20  BANK21  BANK22  BANK23  BANK24  BANK25  BANK2
      +6  BANK27  BANK28  BANK29  BANK30  BANK31
  3540 ;;      Params:         0       0       4       0       0       0       0       0       0       0       0       0       
      +0       0       0       0       0       0       0       0       0       0       0       0       0       0       0       
      +0       0       0       0       0       0
  3541 ;;      Locals:         0       0       2       0       0       0       0       0       0       0       0       0       
      +0       0       0       0       0       0       0       0       0       0       0       0       0       0       0       
      +0       0       0       0       0       0
  3542 ;;      Temps:          0       0       4       0       0       0       0       0       0       0       0       0       
      +0       0       0       0       0       0       0       0       0       0       0       0       0       0       0       
      +0       0       0       0       0       0
  3543 ;;      Totals:         0       0      10       0       0       0       0       0       0       0       0       0       
      +0       0       0       0       0       0       0       0       0       0       0       0       0       0       0       
      +0       0       0       0       0       0
  3544 ;;Total ram usage:       10 bytes
  3545 ;; Hardware stack levels used:    1
  3546 ;; Hardware stack levels required when called:    3
  3547 ;; This function calls:
  3548 ;;		Nothing
  3549 ;; This function is called by:
  3550 ;;		_initial_count
  3551 ;;		_multiplo
  3552 ;;		_uart_config
  3553 ;;		_scale_read
  3554 ;;		_filtrar_iir
  3555 ;; This function uses a non-reentrant model
  3556 ;;
  3557                           
  3558                           	psect	text11
  3559  003262                     __ptext11:
  3560                           	callstack 0
  3561  003262                     ___fltol:
  3562                           	callstack 26
  3563  003262  0101               	movlb	1	; () banked
  3564  003264  35E6               	rlcf	(___fltol@f1+2)& (0+255),w,b
  3565  003266  35E7               	rlcf	(___fltol@f1+3)& (0+255),w,b
  3566  003268  6FED               	movwf	___fltol@exp1& (0+255),b
  3567  00326A  51ED               	movf	___fltol@exp1& (0+255),w,b
  3568  00326C  A4D8               	btfss	status,2,c
  3569  00326E  EF3B  F019         	goto	u2941
  3570  003272  EF3D  F019         	goto	u2940
  3571  003276                     u2941:
  3572  003276  EF47  F019         	goto	l3383
  3573  00327A                     u2940:
  3574  00327A                     l3379:
  3575                           
  3576                           ; BSR set to: 1
  3577  00327A  0E00               	movlw	0
  3578  00327C  6FE4               	movwf	?___fltol& (0+255),b
  3579  00327E  0E00               	movlw	0
  3580  003280  6FE5               	movwf	(?___fltol+1)& (0+255),b
  3581  003282  0E00               	movlw	0
  3582  003284  6FE6               	movwf	(?___fltol+2)& (0+255),b
  3583  003286  0E00               	movlw	0
  3584  003288  6FE7               	movwf	(?___fltol+3)& (0+255),b
  3585  00328A  EFB4  F019         	goto	l875
  3586  00328E                     l3383:
  3587                           
  3588                           ; BSR set to: 1
  3589  00328E  C1E4  F1E8         	movff	___fltol@f1,??___fltol
  3590  003292  C1E5  F1E9         	movff	___fltol@f1+1,??___fltol+1
  3591  003296  C1E6  F1EA         	movff	___fltol@f1+2,??___fltol+2
  3592  00329A  C1E7  F1EB         	movff	___fltol@f1+3,??___fltol+3
  3593  00329E  0E20               	movlw	32
  3594  0032A0  EF57  F019         	goto	u2950
  3595  0032A4                     u2955:
  3596  0032A4  90D8               	bcf	status,0,c
  3597  0032A6  33EB               	rrcf	(??___fltol+3)& (0+255),f,b
  3598  0032A8  33EA               	rrcf	(??___fltol+2)& (0+255),f,b
  3599  0032AA  33E9               	rrcf	(??___fltol+1)& (0+255),f,b
  3600  0032AC  33E8               	rrcf	??___fltol& (0+255),f,b
  3601  0032AE                     u2950:
  3602  0032AE  2EE8               	decfsz	wreg,f,c
  3603  0032B0  EF52  F019         	goto	u2955
  3604  0032B4  51E8               	movf	??___fltol& (0+255),w,b
  3605  0032B6  6FEC               	movwf	___fltol@sign1& (0+255),b
  3606  0032B8                     
  3607                           ; BSR set to: 1
  3608  0032B8  8FE6               	bsf	(___fltol@f1+2)& (0+255),7,b
  3609  0032BA                     
  3610                           ; BSR set to: 1
  3611  0032BA  0EFF               	movlw	255
  3612  0032BC  17E4               	andwf	___fltol@f1& (0+255),f,b
  3613  0032BE  0EFF               	movlw	255
  3614  0032C0  17E5               	andwf	(___fltol@f1+1)& (0+255),f,b
  3615  0032C2  0EFF               	movlw	255
  3616  0032C4  17E6               	andwf	(___fltol@f1+2)& (0+255),f,b
  3617  0032C6  0E00               	movlw	0
  3618  0032C8  17E7               	andwf	(___fltol@f1+3)& (0+255),f,b
  3619  0032CA                     
  3620                           ; BSR set to: 1
  3621  0032CA  0E96               	movlw	150
  3622  0032CC  5FED               	subwf	___fltol@exp1& (0+255),f,b
  3623  0032CE                     
  3624                           ; BSR set to: 1
  3625  0032CE  BFED               	btfsc	___fltol@exp1& (0+255),7,b
  3626  0032D0  EF6E  F019         	goto	u2960
  3627  0032D4  EF6C  F019         	goto	u2961
  3628  0032D8                     u2961:
  3629  0032D8  EF84  F019         	goto	l3403
  3630  0032DC                     u2960:
  3631  0032DC                     
  3632                           ; BSR set to: 1
  3633  0032DC  51ED               	movf	___fltol@exp1& (0+255),w,b
  3634  0032DE  0A80               	xorlw	128
  3635  0032E0  0F97               	addlw	151
  3636  0032E2  B0D8               	btfsc	status,0,c
  3637  0032E4  EF76  F019         	goto	u2971
  3638  0032E8  EF78  F019         	goto	u2970
  3639  0032EC                     u2971:
  3640  0032EC  EF7A  F019         	goto	l3399
  3641  0032F0                     u2970:
  3642  0032F0  EF3D  F019         	goto	l3379
  3643  0032F4                     l3399:
  3644                           
  3645                           ; BSR set to: 1
  3646  0032F4  90D8               	bcf	status,0,c
  3647  0032F6  33E7               	rrcf	(___fltol@f1+3)& (0+255),f,b
  3648  0032F8  33E6               	rrcf	(___fltol@f1+2)& (0+255),f,b
  3649  0032FA  33E5               	rrcf	(___fltol@f1+1)& (0+255),f,b
  3650  0032FC  33E4               	rrcf	___fltol@f1& (0+255),f,b
  3651  0032FE                     
  3652                           ; BSR set to: 1
  3653  0032FE  3FED               	incfsz	___fltol@exp1& (0+255),f,b
  3654  003300  EF7A  F019         	goto	l3399
  3655  003304  EF9C  F019         	goto	l3413
  3656  003308                     l3403:
  3657                           
  3658                           ; BSR set to: 1
  3659  003308  0E1F               	movlw	31
  3660  00330A  65ED               	cpfsgt	___fltol@exp1& (0+255),b
  3661  00330C  EF8A  F019         	goto	u2981
  3662  003310  EF8C  F019         	goto	u2980
  3663  003314                     u2981:
  3664  003314  EF94  F019         	goto	l3411
  3665  003318                     u2980:
  3666  003318  EF3D  F019         	goto	l3379
  3667  00331C                     l3409:
  3668                           
  3669                           ; BSR set to: 1
  3670  00331C  90D8               	bcf	status,0,c
  3671  00331E  37E4               	rlcf	___fltol@f1& (0+255),f,b
  3672  003320  37E5               	rlcf	(___fltol@f1+1)& (0+255),f,b
  3673  003322  37E6               	rlcf	(___fltol@f1+2)& (0+255),f,b
  3674  003324  37E7               	rlcf	(___fltol@f1+3)& (0+255),f,b
  3675  003326  07ED               	decf	___fltol@exp1& (0+255),f,b
  3676  003328                     l3411:
  3677                           
  3678                           ; BSR set to: 1
  3679  003328  51ED               	movf	___fltol@exp1& (0+255),w,b
  3680  00332A  A4D8               	btfss	status,2,c
  3681  00332C  EF9A  F019         	goto	u2991
  3682  003330  EF9C  F019         	goto	u2990
  3683  003334                     u2991:
  3684  003334  EF8E  F019         	goto	l3409
  3685  003338                     u2990:
  3686  003338                     l3413:
  3687                           
  3688                           ; BSR set to: 1
  3689  003338  51EC               	movf	___fltol@sign1& (0+255),w,b
  3690  00333A  B4D8               	btfsc	status,2,c
  3691  00333C  EFA2  F019         	goto	u3001
  3692  003340  EFA4  F019         	goto	u3000
  3693  003344                     u3001:
  3694  003344  EFAC  F019         	goto	l3417
  3695  003348                     u3000:
  3696  003348                     
  3697                           ; BSR set to: 1
  3698  003348  1FE7               	comf	(___fltol@f1+3)& (0+255),f,b
  3699  00334A  1FE6               	comf	(___fltol@f1+2)& (0+255),f,b
  3700  00334C  1FE5               	comf	(___fltol@f1+1)& (0+255),f,b
  3701  00334E  6DE4               	negf	___fltol@f1& (0+255),b
  3702  003350  0E00               	movlw	0
  3703  003352  23E5               	addwfc	(___fltol@f1+1)& (0+255),f,b
  3704  003354  23E6               	addwfc	(___fltol@f1+2)& (0+255),f,b
  3705  003356  23E7               	addwfc	(___fltol@f1+3)& (0+255),f,b
  3706  003358                     l3417:
  3707                           
  3708                           ; BSR set to: 1
  3709  003358  C1E4  F1E4         	movff	___fltol@f1,?___fltol
  3710  00335C  C1E5  F1E5         	movff	___fltol@f1+1,?___fltol+1
  3711  003360  C1E6  F1E6         	movff	___fltol@f1+2,?___fltol+2
  3712  003364  C1E7  F1E7         	movff	___fltol@f1+3,?___fltol+3
  3713  003368                     l875:
  3714                           
  3715                           ; BSR set to: 1
  3716  003368  0012               	return		;funcret
  3717  00336A                     __end_of___fltol:
  3718                           	callstack 0
  3719                           
  3720 ;; *************** function ___fldiv *****************
  3721 ;; Defined at:
  3722 ;;		line 11 in file "C:\Program Files\Microchip\xc8\v2.31\pic\sources\c99\common\sprcdiv.c"
  3723 ;; Parameters:    Size  Location     Type
  3724 ;;  b               4   36[COMRAM] long 
  3725 ;;  a               4   40[COMRAM] long 
  3726 ;; Auto vars:     Size  Location     Type
  3727 ;;  grs             4    7[BANK0 ] unsigned long 
  3728 ;;  rem             4    0[BANK0 ] unsigned long 
  3729 ;;  new_exp         2    5[BANK0 ] short 
  3730 ;;  aexp            1   12[BANK0 ] unsigned char 
  3731 ;;  bexp            1   11[BANK0 ] unsigned char 
  3732 ;;  sign            1    4[BANK0 ] unsigned char 
  3733 ;; Return value:  Size  Location     Type
  3734 ;;                  4   36[COMRAM] unsigned char 
  3735 ;; Registers used:
  3736 ;;		wreg, status,2, status,0
  3737 ;; Tracked objects:
  3738 ;;		On entry : 0/0
  3739 ;;		On exit  : 0/0
  3740 ;;		Unchanged: 0/0
  3741 ;; Data sizes:     COMRAM   BANK0   BANK1   BANK2   BANK3   BANK4   BANK5   BANK6   BANK7   BANK8   BANK9  BANK10  BANK1
      +1  BANK12  BANK13  BANK14  BANK15  BANK16  BANK17  BANK18  BANK19  BANK20  BANK21  BANK22  BANK23  BANK24  BANK25  BANK2
      +6  BANK27  BANK28  BANK29  BANK30  BANK31
  3742 ;;      Params:         8       0       0       0       0       0       0       0       0       0       0       0       
      +0       0       0       0       0       0       0       0       0       0       0       0       0       0       0       
      +0       0       0       0       0       0
  3743 ;;      Locals:         0      13       0       0       0       0       0       0       0       0       0       0       
      +0       0       0       0       0       0       0       0       0       0       0       0       0       0       0       
      +0       0       0       0       0       0
  3744 ;;      Temps:          4       0       0       0       0       0       0       0       0       0       0       0       
      +0       0       0       0       0       0       0       0       0       0       0       0       0       0       0       
      +0       0       0       0       0       0
  3745 ;;      Totals:        12      13       0       0       0       0       0       0       0       0       0       0       
      +0       0       0       0       0       0       0       0       0       0       0       0       0       0       0       
      +0       0       0       0       0       0
  3746 ;;Total ram usage:       25 bytes
  3747 ;; Hardware stack levels used:    1
  3748 ;; Hardware stack levels required when called:    3
  3749 ;; This function calls:
  3750 ;;		Nothing
  3751 ;; This function is called by:
  3752 ;;		_timer0_config
  3753 ;;		_multiplo
  3754 ;;		_uart_config
  3755 ;; This function uses a non-reentrant model
  3756 ;;
  3757                           
  3758                           	psect	text12
  3759  002918                     __ptext12:
  3760                           	callstack 0
  3761  002918                     ___fldiv:
  3762                           	callstack 26
  3763  002918  5028               	movf	(___fldiv@b+3)^0,w,c
  3764  00291A  0B80               	andlw	128
  3765  00291C  0100               	movlb	0	; () banked
  3766  00291E  6FDD               	movwf	___fldiv@sign& (0+255),b
  3767  002920  5028               	movf	(___fldiv@b+3)^0,w,c
  3768  002922  2428               	addwf	(___fldiv@b+3)^0,w,c
  3769  002924  6FE4               	movwf	___fldiv@bexp& (0+255),b
  3770  002926                     
  3771                           ; BSR set to: 0
  3772  002926  AE27               	btfss	(___fldiv@b+2)^0,7,c
  3773  002928  EF98  F014         	goto	u3031
  3774  00292C  EF9A  F014         	goto	u3030
  3775  002930                     u3031:
  3776  002930  EF9B  F014         	goto	l3439
  3777  002934                     u3030:
  3778  002934                     
  3779                           ; BSR set to: 0
  3780  002934  81E4               	bsf	___fldiv@bexp& (0+255),0,b
  3781  002936                     l3439:
  3782                           
  3783                           ; BSR set to: 0
  3784  002936  51E4               	movf	___fldiv@bexp& (0+255),w,b
  3785  002938  B4D8               	btfsc	status,2,c
  3786  00293A  EFA1  F014         	goto	u3041
  3787  00293E  EFA3  F014         	goto	u3040
  3788  002942                     u3041:
  3789  002942  EFB8  F014         	goto	l3449
  3790  002946                     u3040:
  3791  002946                     
  3792                           ; BSR set to: 0
  3793  002946  29E4               	incf	___fldiv@bexp& (0+255),w,b
  3794  002948  A4D8               	btfss	status,2,c
  3795  00294A  EFA9  F014         	goto	u3051
  3796  00294E  EFAB  F014         	goto	u3050
  3797  002952                     u3051:
  3798  002952  EFB3  F014         	goto	l3445
  3799  002956                     u3050:
  3800  002956                     
  3801                           ; BSR set to: 0
  3802  002956  0E00               	movlw	0
  3803  002958  6E25               	movwf	___fldiv@b^0,c
  3804  00295A  0E00               	movlw	0
  3805  00295C  6E26               	movwf	(___fldiv@b+1)^0,c
  3806  00295E  0E00               	movlw	0
  3807  002960  6E27               	movwf	(___fldiv@b+2)^0,c
  3808  002962  0E00               	movlw	0
  3809  002964  6E28               	movwf	(___fldiv@b+3)^0,c
  3810  002966                     l3445:
  3811                           
  3812                           ; BSR set to: 0
  3813  002966  8E27               	bsf	(___fldiv@b+2)^0,7,c
  3814  002968                     
  3815                           ; BSR set to: 0
  3816  002968  0E00               	movlw	0
  3817  00296A  6E28               	movwf	(___fldiv@b+3)^0,c
  3818  00296C  EFC0  F014         	goto	l3451
  3819  002970                     l3449:
  3820                           
  3821                           ; BSR set to: 0
  3822  002970  0E00               	movlw	0
  3823  002972  6E25               	movwf	___fldiv@b^0,c
  3824  002974  0E00               	movlw	0
  3825  002976  6E26               	movwf	(___fldiv@b+1)^0,c
  3826  002978  0E00               	movlw	0
  3827  00297A  6E27               	movwf	(___fldiv@b+2)^0,c
  3828  00297C  0E00               	movlw	0
  3829  00297E  6E28               	movwf	(___fldiv@b+3)^0,c
  3830  002980                     l3451:
  3831                           
  3832                           ; BSR set to: 0
  3833  002980  502C               	movf	(___fldiv@a+3)^0,w,c
  3834  002982  0B80               	andlw	128
  3835  002984  1BDD               	xorwf	___fldiv@sign& (0+255),f,b
  3836  002986                     
  3837                           ; BSR set to: 0
  3838  002986  502C               	movf	(___fldiv@a+3)^0,w,c
  3839  002988  242C               	addwf	(___fldiv@a+3)^0,w,c
  3840  00298A  6FE5               	movwf	___fldiv@aexp& (0+255),b
  3841  00298C                     
  3842                           ; BSR set to: 0
  3843  00298C  AE2B               	btfss	(___fldiv@a+2)^0,7,c
  3844  00298E  EFCB  F014         	goto	u3061
  3845  002992  EFCD  F014         	goto	u3060
  3846  002996                     u3061:
  3847  002996  EFCE  F014         	goto	l3459
  3848  00299A                     u3060:
  3849  00299A                     
  3850                           ; BSR set to: 0
  3851  00299A  81E5               	bsf	___fldiv@aexp& (0+255),0,b
  3852  00299C                     l3459:
  3853                           
  3854                           ; BSR set to: 0
  3855  00299C  51E5               	movf	___fldiv@aexp& (0+255),w,b
  3856  00299E  B4D8               	btfsc	status,2,c
  3857  0029A0  EFD4  F014         	goto	u3071
  3858  0029A4  EFD6  F014         	goto	u3070
  3859  0029A8                     u3071:
  3860  0029A8  EFEB  F014         	goto	l3469
  3861  0029AC                     u3070:
  3862  0029AC                     
  3863                           ; BSR set to: 0
  3864  0029AC  29E5               	incf	___fldiv@aexp& (0+255),w,b
  3865  0029AE  A4D8               	btfss	status,2,c
  3866  0029B0  EFDC  F014         	goto	u3081
  3867  0029B4  EFDE  F014         	goto	u3080
  3868  0029B8                     u3081:
  3869  0029B8  EFE6  F014         	goto	l3465
  3870  0029BC                     u3080:
  3871  0029BC                     
  3872                           ; BSR set to: 0
  3873  0029BC  0E00               	movlw	0
  3874  0029BE  6E29               	movwf	___fldiv@a^0,c
  3875  0029C0  0E00               	movlw	0
  3876  0029C2  6E2A               	movwf	(___fldiv@a+1)^0,c
  3877  0029C4  0E00               	movlw	0
  3878  0029C6  6E2B               	movwf	(___fldiv@a+2)^0,c
  3879  0029C8  0E00               	movlw	0
  3880  0029CA  6E2C               	movwf	(___fldiv@a+3)^0,c
  3881  0029CC                     l3465:
  3882                           
  3883                           ; BSR set to: 0
  3884  0029CC  8E2B               	bsf	(___fldiv@a+2)^0,7,c
  3885  0029CE                     
  3886                           ; BSR set to: 0
  3887  0029CE  0E00               	movlw	0
  3888  0029D0  6E2C               	movwf	(___fldiv@a+3)^0,c
  3889  0029D2  EFF3  F014         	goto	l3471
  3890  0029D6                     l3469:
  3891                           
  3892                           ; BSR set to: 0
  3893  0029D6  0E00               	movlw	0
  3894  0029D8  6E29               	movwf	___fldiv@a^0,c
  3895  0029DA  0E00               	movlw	0
  3896  0029DC  6E2A               	movwf	(___fldiv@a+1)^0,c
  3897  0029DE  0E00               	movlw	0
  3898  0029E0  6E2B               	movwf	(___fldiv@a+2)^0,c
  3899  0029E2  0E00               	movlw	0
  3900  0029E4  6E2C               	movwf	(___fldiv@a+3)^0,c
  3901  0029E6                     l3471:
  3902                           
  3903                           ; BSR set to: 0
  3904  0029E6  5029               	movf	___fldiv@a^0,w,c
  3905  0029E8  102A               	iorwf	(___fldiv@a+1)^0,w,c
  3906  0029EA  102B               	iorwf	(___fldiv@a+2)^0,w,c
  3907  0029EC  102C               	iorwf	(___fldiv@a+3)^0,w,c
  3908  0029EE  A4D8               	btfss	status,2,c
  3909  0029F0  EFFC  F014         	goto	u3091
  3910  0029F4  EFFE  F014         	goto	u3090
  3911  0029F8                     u3091:
  3912  0029F8  EF16  F015         	goto	l3483
  3913  0029FC                     u3090:
  3914  0029FC                     
  3915                           ; BSR set to: 0
  3916  0029FC  0E00               	movlw	0
  3917  0029FE  6E25               	movwf	___fldiv@b^0,c
  3918  002A00  0E00               	movlw	0
  3919  002A02  6E26               	movwf	(___fldiv@b+1)^0,c
  3920  002A04  0E00               	movlw	0
  3921  002A06  6E27               	movwf	(___fldiv@b+2)^0,c
  3922  002A08  0E00               	movlw	0
  3923  002A0A  6E28               	movwf	(___fldiv@b+3)^0,c
  3924  002A0C                     
  3925                           ; BSR set to: 0
  3926  002A0C  0E80               	movlw	128
  3927  002A0E  1227               	iorwf	(___fldiv@b+2)^0,f,c
  3928  002A10  0E7F               	movlw	127
  3929  002A12  1228               	iorwf	(___fldiv@b+3)^0,f,c
  3930  002A14                     l3477:
  3931                           
  3932                           ; BSR set to: 0
  3933  002A14  51DD               	movf	___fldiv@sign& (0+255),w,b
  3934  002A16  1228               	iorwf	(___fldiv@b+3)^0,f,c
  3935  002A18                     
  3936                           ; BSR set to: 0
  3937  002A18  C025  F025         	movff	___fldiv@b,?___fldiv
  3938  002A1C  C026  F026         	movff	___fldiv@b+1,?___fldiv+1
  3939  002A20  C027  F027         	movff	___fldiv@b+2,?___fldiv+2
  3940  002A24  C028  F028         	movff	___fldiv@b+3,?___fldiv+3
  3941  002A28  EF59  F016         	goto	l1160
  3942  002A2C                     l3483:
  3943                           
  3944                           ; BSR set to: 0
  3945  002A2C  51E4               	movf	___fldiv@bexp& (0+255),w,b
  3946  002A2E  A4D8               	btfss	status,2,c
  3947  002A30  EF1C  F015         	goto	u3101
  3948  002A34  EF1E  F015         	goto	u3100
  3949  002A38                     u3101:
  3950  002A38  EF28  F015         	goto	l3491
  3951  002A3C                     u3100:
  3952  002A3C                     
  3953                           ; BSR set to: 0
  3954  002A3C  0E00               	movlw	0
  3955  002A3E  6E25               	movwf	?___fldiv^0,c
  3956  002A40  0E00               	movlw	0
  3957  002A42  6E26               	movwf	(?___fldiv+1)^0,c
  3958  002A44  0E00               	movlw	0
  3959  002A46  6E27               	movwf	(?___fldiv+2)^0,c
  3960  002A48  0E00               	movlw	0
  3961  002A4A  6E28               	movwf	(?___fldiv+3)^0,c
  3962  002A4C  EF59  F016         	goto	l1160
  3963  002A50                     l3491:
  3964                           
  3965                           ; BSR set to: 0
  3966  002A50  51E5               	movf	___fldiv@aexp& (0+255),w,b
  3967  002A52  C0E4  F02D         	movff	___fldiv@bexp,??___fldiv
  3968  002A56  6A2E               	clrf	(??___fldiv+1)^0,c
  3969  002A58  5E2D               	subwf	??___fldiv^0,f,c
  3970  002A5A  0E00               	movlw	0
  3971  002A5C  5A2E               	subwfb	(??___fldiv+1)^0,f,c
  3972  002A5E  0E7F               	movlw	127
  3973  002A60  242D               	addwf	??___fldiv^0,w,c
  3974  002A62  6FDE               	movwf	___fldiv@new_exp& (0+255),b
  3975  002A64  0E00               	movlw	0
  3976  002A66  202E               	addwfc	(??___fldiv+1)^0,w,c
  3977  002A68  6FDF               	movwf	(___fldiv@new_exp+1)& (0+255),b
  3978  002A6A                     
  3979                           ; BSR set to: 0
  3980  002A6A  C025  F0D9         	movff	___fldiv@b,___fldiv@rem
  3981  002A6E  C026  F0DA         	movff	___fldiv@b+1,___fldiv@rem+1
  3982  002A72  C027  F0DB         	movff	___fldiv@b+2,___fldiv@rem+2
  3983  002A76  C028  F0DC         	movff	___fldiv@b+3,___fldiv@rem+3
  3984  002A7A                     
  3985                           ; BSR set to: 0
  3986  002A7A  0E00               	movlw	0
  3987  002A7C  6E25               	movwf	___fldiv@b^0,c
  3988  002A7E  0E00               	movlw	0
  3989  002A80  6E26               	movwf	(___fldiv@b+1)^0,c
  3990  002A82  0E00               	movlw	0
  3991  002A84  6E27               	movwf	(___fldiv@b+2)^0,c
  3992  002A86  0E00               	movlw	0
  3993  002A88  6E28               	movwf	(___fldiv@b+3)^0,c
  3994  002A8A                     
  3995                           ; BSR set to: 0
  3996  002A8A  0E00               	movlw	0
  3997  002A8C  6FE0               	movwf	___fldiv@grs& (0+255),b
  3998  002A8E  0E00               	movlw	0
  3999  002A90  6FE1               	movwf	(___fldiv@grs+1)& (0+255),b
  4000  002A92  0E00               	movlw	0
  4001  002A94  6FE2               	movwf	(___fldiv@grs+2)& (0+255),b
  4002  002A96  0E00               	movlw	0
  4003  002A98  6FE3               	movwf	(___fldiv@grs+3)& (0+255),b
  4004  002A9A                     
  4005                           ; BSR set to: 0
  4006  002A9A  0E00               	movlw	0
  4007  002A9C  6FE5               	movwf	___fldiv@aexp& (0+255),b
  4008  002A9E  EF89  F015         	goto	l1162
  4009  002AA2                     l3501:
  4010                           
  4011                           ; BSR set to: 0
  4012  002AA2  51E5               	movf	___fldiv@aexp& (0+255),w,b
  4013  002AA4  B4D8               	btfsc	status,2,c
  4014  002AA6  EF57  F015         	goto	u3111
  4015  002AAA  EF59  F015         	goto	u3110
  4016  002AAE                     u3111:
  4017  002AAE  EF70  F015         	goto	l3509
  4018  002AB2                     u3110:
  4019  002AB2                     
  4020                           ; BSR set to: 0
  4021  002AB2  90D8               	bcf	status,0,c
  4022  002AB4  37D9               	rlcf	___fldiv@rem& (0+255),f,b
  4023  002AB6  37DA               	rlcf	(___fldiv@rem+1)& (0+255),f,b
  4024  002AB8  37DB               	rlcf	(___fldiv@rem+2)& (0+255),f,b
  4025  002ABA  37DC               	rlcf	(___fldiv@rem+3)& (0+255),f,b
  4026  002ABC  90D8               	bcf	status,0,c
  4027  002ABE  3625               	rlcf	___fldiv@b^0,f,c
  4028  002AC0  3626               	rlcf	(___fldiv@b+1)^0,f,c
  4029  002AC2  3627               	rlcf	(___fldiv@b+2)^0,f,c
  4030  002AC4  3628               	rlcf	(___fldiv@b+3)^0,f,c
  4031  002AC6                     
  4032                           ; BSR set to: 0
  4033  002AC6  AFE3               	btfss	(___fldiv@grs+3)& (0+255),7,b
  4034  002AC8  EF68  F015         	goto	u3121
  4035  002ACC  EF6A  F015         	goto	u3120
  4036  002AD0                     u3121:
  4037  002AD0  EF6B  F015         	goto	l1165
  4038  002AD4                     u3120:
  4039  002AD4                     
  4040                           ; BSR set to: 0
  4041  002AD4  8025               	bsf	___fldiv@b^0,0,c
  4042  002AD6                     l1165:
  4043                           
  4044                           ; BSR set to: 0
  4045  002AD6  90D8               	bcf	status,0,c
  4046  002AD8  37E0               	rlcf	___fldiv@grs& (0+255),f,b
  4047  002ADA  37E1               	rlcf	(___fldiv@grs+1)& (0+255),f,b
  4048  002ADC  37E2               	rlcf	(___fldiv@grs+2)& (0+255),f,b
  4049  002ADE  37E3               	rlcf	(___fldiv@grs+3)& (0+255),f,b
  4050  002AE0                     l3509:
  4051                           
  4052                           ; BSR set to: 0
  4053  002AE0  5029               	movf	___fldiv@a^0,w,c
  4054  002AE2  5DD9               	subwf	___fldiv@rem& (0+255),w,b
  4055  002AE4  502A               	movf	(___fldiv@a+1)^0,w,c
  4056  002AE6  59DA               	subwfb	(___fldiv@rem+1)& (0+255),w,b
  4057  002AE8  502B               	movf	(___fldiv@a+2)^0,w,c
  4058  002AEA  59DB               	subwfb	(___fldiv@rem+2)& (0+255),w,b
  4059  002AEC  502C               	movf	(___fldiv@a+3)^0,w,c
  4060  002AEE  59DC               	subwfb	(___fldiv@rem+3)& (0+255),w,b
  4061  002AF0  A0D8               	btfss	status,0,c
  4062  002AF2  EF7D  F015         	goto	u3131
  4063  002AF6  EF7F  F015         	goto	u3130
  4064  002AFA                     u3131:
  4065  002AFA  EF88  F015         	goto	l3515
  4066  002AFE                     u3130:
  4067  002AFE                     
  4068                           ; BSR set to: 0
  4069  002AFE  8DE3               	bsf	(___fldiv@grs+3)& (0+255),6,b
  4070  002B00                     
  4071                           ; BSR set to: 0
  4072  002B00  5029               	movf	___fldiv@a^0,w,c
  4073  002B02  5FD9               	subwf	___fldiv@rem& (0+255),f,b
  4074  002B04  502A               	movf	(___fldiv@a+1)^0,w,c
  4075  002B06  5BDA               	subwfb	(___fldiv@rem+1)& (0+255),f,b
  4076  002B08  502B               	movf	(___fldiv@a+2)^0,w,c
  4077  002B0A  5BDB               	subwfb	(___fldiv@rem+2)& (0+255),f,b
  4078  002B0C  502C               	movf	(___fldiv@a+3)^0,w,c
  4079  002B0E  5BDC               	subwfb	(___fldiv@rem+3)& (0+255),f,b
  4080  002B10                     l3515:
  4081                           
  4082                           ; BSR set to: 0
  4083  002B10  2BE5               	incf	___fldiv@aexp& (0+255),f,b
  4084  002B12                     l1162:
  4085                           
  4086                           ; BSR set to: 0
  4087  002B12  0E19               	movlw	25
  4088  002B14  65E5               	cpfsgt	___fldiv@aexp& (0+255),b
  4089  002B16  EF8F  F015         	goto	u3141
  4090  002B1A  EF91  F015         	goto	u3140
  4091  002B1E                     u3141:
  4092  002B1E  EF51  F015         	goto	l3501
  4093  002B22                     u3140:
  4094  002B22                     
  4095                           ; BSR set to: 0
  4096  002B22  51D9               	movf	___fldiv@rem& (0+255),w,b
  4097  002B24  11DA               	iorwf	(___fldiv@rem+1)& (0+255),w,b
  4098  002B26  11DB               	iorwf	(___fldiv@rem+2)& (0+255),w,b
  4099  002B28  11DC               	iorwf	(___fldiv@rem+3)& (0+255),w,b
  4100  002B2A  B4D8               	btfsc	status,2,c
  4101  002B2C  EF9A  F015         	goto	u3151
  4102  002B30  EF9C  F015         	goto	u3150
  4103  002B34                     u3151:
  4104  002B34  EFB4  F015         	goto	l3527
  4105  002B38                     u3150:
  4106  002B38                     
  4107                           ; BSR set to: 0
  4108  002B38  81E0               	bsf	___fldiv@grs& (0+255),0,b
  4109  002B3A  EFB4  F015         	goto	l3527
  4110  002B3E                     l3521:
  4111                           
  4112                           ; BSR set to: 0
  4113  002B3E  90D8               	bcf	status,0,c
  4114  002B40  3625               	rlcf	___fldiv@b^0,f,c
  4115  002B42  3626               	rlcf	(___fldiv@b+1)^0,f,c
  4116  002B44  3627               	rlcf	(___fldiv@b+2)^0,f,c
  4117  002B46  3628               	rlcf	(___fldiv@b+3)^0,f,c
  4118  002B48                     
  4119                           ; BSR set to: 0
  4120  002B48  AFE3               	btfss	(___fldiv@grs+3)& (0+255),7,b
  4121  002B4A  EFA9  F015         	goto	u3161
  4122  002B4E  EFAB  F015         	goto	u3160
  4123  002B52                     u3161:
  4124  002B52  EFAC  F015         	goto	l1171
  4125  002B56                     u3160:
  4126  002B56                     
  4127                           ; BSR set to: 0
  4128  002B56  8025               	bsf	___fldiv@b^0,0,c
  4129  002B58                     l1171:
  4130                           
  4131                           ; BSR set to: 0
  4132  002B58  90D8               	bcf	status,0,c
  4133  002B5A  37E0               	rlcf	___fldiv@grs& (0+255),f,b
  4134  002B5C  37E1               	rlcf	(___fldiv@grs+1)& (0+255),f,b
  4135  002B5E  37E2               	rlcf	(___fldiv@grs+2)& (0+255),f,b
  4136  002B60  37E3               	rlcf	(___fldiv@grs+3)& (0+255),f,b
  4137  002B62  07DE               	decf	___fldiv@new_exp& (0+255),f,b
  4138  002B64  A0D8               	btfss	status,0,c
  4139  002B66  07DF               	decf	(___fldiv@new_exp+1)& (0+255),f,b
  4140  002B68                     l3527:
  4141                           
  4142                           ; BSR set to: 0
  4143  002B68  AE27               	btfss	(___fldiv@b+2)^0,7,c
  4144  002B6A  EFB9  F015         	goto	u3171
  4145  002B6E  EFBB  F015         	goto	u3170
  4146  002B72                     u3171:
  4147  002B72  EF9F  F015         	goto	l3521
  4148  002B76                     u3170:
  4149  002B76                     
  4150                           ; BSR set to: 0
  4151  002B76  0E00               	movlw	0
  4152  002B78  6FE5               	movwf	___fldiv@aexp& (0+255),b
  4153  002B7A                     
  4154                           ; BSR set to: 0
  4155  002B7A  AFE3               	btfss	(___fldiv@grs+3)& (0+255),7,b
  4156  002B7C  EFC2  F015         	goto	u3181
  4157  002B80  EFC4  F015         	goto	u3180
  4158  002B84                     u3181:
  4159  002B84  EFE8  F015         	goto	l1173
  4160  002B88                     u3180:
  4161  002B88                     
  4162                           ; BSR set to: 0
  4163  002B88  0EFF               	movlw	255
  4164  002B8A  15E0               	andwf	___fldiv@grs& (0+255),w,b
  4165  002B8C  6E2D               	movwf	??___fldiv^0,c
  4166  002B8E  0EFF               	movlw	255
  4167  002B90  15E1               	andwf	(___fldiv@grs+1)& (0+255),w,b
  4168  002B92  6E2E               	movwf	(??___fldiv+1)^0,c
  4169  002B94  0EFF               	movlw	255
  4170  002B96  15E2               	andwf	(___fldiv@grs+2)& (0+255),w,b
  4171  002B98  6E2F               	movwf	(??___fldiv+2)^0,c
  4172  002B9A  0E7F               	movlw	127
  4173  002B9C  15E3               	andwf	(___fldiv@grs+3)& (0+255),w,b
  4174  002B9E  6E30               	movwf	(??___fldiv+3)^0,c
  4175  002BA0  502D               	movf	??___fldiv^0,w,c
  4176  002BA2  102E               	iorwf	(??___fldiv+1)^0,w,c
  4177  002BA4  102F               	iorwf	(??___fldiv+2)^0,w,c
  4178  002BA6  1030               	iorwf	(??___fldiv+3)^0,w,c
  4179  002BA8  B4D8               	btfsc	status,2,c
  4180  002BAA  EFD9  F015         	goto	u3191
  4181  002BAE  EFDB  F015         	goto	u3190
  4182  002BB2                     u3191:
  4183  002BB2  EFDF  F015         	goto	l1174
  4184  002BB6                     u3190:
  4185  002BB6                     l3535:
  4186                           
  4187                           ; BSR set to: 0
  4188  002BB6  0E01               	movlw	1
  4189  002BB8  6FE5               	movwf	___fldiv@aexp& (0+255),b
  4190  002BBA  EFE8  F015         	goto	l1173
  4191  002BBE                     l1174:
  4192                           
  4193                           ; BSR set to: 0
  4194  002BBE  A025               	btfss	___fldiv@b^0,0,c
  4195  002BC0  EFE4  F015         	goto	u3201
  4196  002BC4  EFE6  F015         	goto	u3200
  4197  002BC8                     u3201:
  4198  002BC8  EFE8  F015         	goto	l1173
  4199  002BCC                     u3200:
  4200  002BCC  EFDB  F015         	goto	l3535
  4201  002BD0                     l1173:
  4202                           
  4203                           ; BSR set to: 0
  4204  002BD0  51E5               	movf	___fldiv@aexp& (0+255),w,b
  4205  002BD2  B4D8               	btfsc	status,2,c
  4206  002BD4  EFEE  F015         	goto	u3211
  4207  002BD8  EFF0  F015         	goto	u3210
  4208  002BDC                     u3211:
  4209  002BDC  EF14  F016         	goto	l3547
  4210  002BE0                     u3210:
  4211  002BE0                     
  4212                           ; BSR set to: 0
  4213  002BE0  0E01               	movlw	1
  4214  002BE2  2625               	addwf	___fldiv@b^0,f,c
  4215  002BE4  0E00               	movlw	0
  4216  002BE6  2226               	addwfc	(___fldiv@b+1)^0,f,c
  4217  002BE8  2227               	addwfc	(___fldiv@b+2)^0,f,c
  4218  002BEA  2228               	addwfc	(___fldiv@b+3)^0,f,c
  4219  002BEC                     
  4220                           ; BSR set to: 0
  4221  002BEC  A028               	btfss	(___fldiv@b+3)^0,0,c
  4222  002BEE  EFFB  F015         	goto	u3221
  4223  002BF2  EFFD  F015         	goto	u3220
  4224  002BF6                     u3221:
  4225  002BF6  EF14  F016         	goto	l3547
  4226  002BFA                     u3220:
  4227  002BFA                     
  4228                           ; BSR set to: 0
  4229  002BFA  C025  F02D         	movff	___fldiv@b,??___fldiv
  4230  002BFE  C026  F02E         	movff	___fldiv@b+1,??___fldiv+1
  4231  002C02  C027  F02F         	movff	___fldiv@b+2,??___fldiv+2
  4232  002C06  C028  F030         	movff	___fldiv@b+3,??___fldiv+3
  4233  002C0A  3430               	rlcf	(??___fldiv+3)^0,w,c
  4234  002C0C  3230               	rrcf	(??___fldiv+3)^0,f,c
  4235  002C0E  322F               	rrcf	(??___fldiv+2)^0,f,c
  4236  002C10  322E               	rrcf	(??___fldiv+1)^0,f,c
  4237  002C12  322D               	rrcf	??___fldiv^0,f,c
  4238  002C14  C02D  F025         	movff	??___fldiv,___fldiv@b
  4239  002C18  C02E  F026         	movff	??___fldiv+1,___fldiv@b+1
  4240  002C1C  C02F  F027         	movff	??___fldiv+2,___fldiv@b+2
  4241  002C20  C030  F028         	movff	??___fldiv+3,___fldiv@b+3
  4242  002C24                     
  4243                           ; BSR set to: 0
  4244  002C24  4BDE               	infsnz	___fldiv@new_exp& (0+255),f,b
  4245  002C26  2BDF               	incf	(___fldiv@new_exp+1)& (0+255),f,b
  4246  002C28                     l3547:
  4247                           
  4248                           ; BSR set to: 0
  4249  002C28  BFDF               	btfsc	(___fldiv@new_exp+1)& (0+255),7,b
  4250  002C2A  EF1F  F016         	goto	u3231
  4251  002C2E  51DF               	movf	(___fldiv@new_exp+1)& (0+255),w,b
  4252  002C30  E108               	bnz	u3230
  4253  002C32  29DE               	incf	___fldiv@new_exp& (0+255),w,b
  4254  002C34  A0D8               	btfss	status,0,c
  4255  002C36  EF1F  F016         	goto	u3231
  4256  002C3A  EF21  F016         	goto	u3230
  4257  002C3E                     u3231:
  4258  002C3E  EF2C  F016         	goto	l3551
  4259  002C42                     u3230:
  4260  002C42                     
  4261                           ; BSR set to: 0
  4262  002C42  0E00               	movlw	0
  4263  002C44  6FDF               	movwf	(___fldiv@new_exp+1)& (0+255),b
  4264  002C46  69DE               	setf	___fldiv@new_exp& (0+255),b
  4265  002C48  0E00               	movlw	0
  4266  002C4A  6E25               	movwf	___fldiv@b^0,c
  4267  002C4C  0E00               	movlw	0
  4268  002C4E  6E26               	movwf	(___fldiv@b+1)^0,c
  4269  002C50  0E00               	movlw	0
  4270  002C52  6E27               	movwf	(___fldiv@b+2)^0,c
  4271  002C54  0E00               	movlw	0
  4272  002C56  6E28               	movwf	(___fldiv@b+3)^0,c
  4273  002C58                     l3551:
  4274                           
  4275                           ; BSR set to: 0
  4276  002C58  BFDF               	btfsc	(___fldiv@new_exp+1)& (0+255),7,b
  4277  002C5A  EF39  F016         	goto	u3240
  4278  002C5E  51DF               	movf	(___fldiv@new_exp+1)& (0+255),w,b
  4279  002C60  E106               	bnz	u3241
  4280  002C62  05DE               	decf	___fldiv@new_exp& (0+255),w,b
  4281  002C64  B0D8               	btfsc	status,0,c
  4282  002C66  EF37  F016         	goto	u3241
  4283  002C6A  EF39  F016         	goto	u3240
  4284  002C6E                     u3241:
  4285  002C6E  EF47  F016         	goto	l3555
  4286  002C72                     u3240:
  4287  002C72                     
  4288                           ; BSR set to: 0
  4289  002C72  0E00               	movlw	0
  4290  002C74  6FDF               	movwf	(___fldiv@new_exp+1)& (0+255),b
  4291  002C76  0E00               	movlw	0
  4292  002C78  6FDE               	movwf	___fldiv@new_exp& (0+255),b
  4293  002C7A  0E00               	movlw	0
  4294  002C7C  6E25               	movwf	___fldiv@b^0,c
  4295  002C7E  0E00               	movlw	0
  4296  002C80  6E26               	movwf	(___fldiv@b+1)^0,c
  4297  002C82  0E00               	movlw	0
  4298  002C84  6E27               	movwf	(___fldiv@b+2)^0,c
  4299  002C86  0E00               	movlw	0
  4300  002C88  6E28               	movwf	(___fldiv@b+3)^0,c
  4301  002C8A  0E00               	movlw	0
  4302  002C8C  6FDD               	movwf	___fldiv@sign& (0+255),b
  4303  002C8E                     l3555:
  4304                           
  4305                           ; BSR set to: 0
  4306  002C8E  C0DE  F0E4         	movff	___fldiv@new_exp,___fldiv@bexp
  4307  002C92                     
  4308                           ; BSR set to: 0
  4309  002C92  A1E4               	btfss	___fldiv@bexp& (0+255),0,b
  4310  002C94  EF4E  F016         	goto	u3251
  4311  002C98  EF50  F016         	goto	u3250
  4312  002C9C                     u3251:
  4313  002C9C  EF53  F016         	goto	l3561
  4314  002CA0                     u3250:
  4315  002CA0                     
  4316                           ; BSR set to: 0
  4317  002CA0  8E27               	bsf	(___fldiv@b+2)^0,7,c
  4318  002CA2  EF54  F016         	goto	l3563
  4319  002CA6                     l3561:
  4320                           
  4321                           ; BSR set to: 0
  4322  002CA6  9E27               	bcf	(___fldiv@b+2)^0,7,c
  4323  002CA8                     l3563:
  4324                           
  4325                           ; BSR set to: 0
  4326  002CA8  90D8               	bcf	status,0,c
  4327  002CAA  31E4               	rrcf	___fldiv@bexp& (0+255),w,b
  4328  002CAC  6E28               	movwf	(___fldiv@b+3)^0,c
  4329  002CAE  EF0A  F015         	goto	l3477
  4330  002CB2                     l1160:
  4331                           
  4332                           ; BSR set to: 0
  4333  002CB2  0012               	return		;funcret
  4334  002CB4                     __end_of___fldiv:
  4335                           	callstack 0
  4336                           
  4337 ;; *************** function _inicializar_filtro_fir *****************
  4338 ;; Defined at:
  4339 ;;		line 7 in file "fir.c"
  4340 ;; Parameters:    Size  Location     Type
  4341 ;;  filtro          2   22[COMRAM] PTR struct .
  4342 ;;		 -> filtro_fir_2(8), filtro_fir_1(8), 
  4343 ;; Auto vars:     Size  Location     Type
  4344 ;;		None
  4345 ;; Return value:  Size  Location     Type
  4346 ;;                  1    wreg      void 
  4347 ;; Registers used:
  4348 ;;		wreg, fsr2l, fsr2h, status,2, status,0
  4349 ;; Tracked objects:
  4350 ;;		On entry : 0/0
  4351 ;;		On exit  : 0/0
  4352 ;;		Unchanged: 0/0
  4353 ;; Data sizes:     COMRAM   BANK0   BANK1   BANK2   BANK3   BANK4   BANK5   BANK6   BANK7   BANK8   BANK9  BANK10  BANK1
      +1  BANK12  BANK13  BANK14  BANK15  BANK16  BANK17  BANK18  BANK19  BANK20  BANK21  BANK22  BANK23  BANK24  BANK25  BANK2
      +6  BANK27  BANK28  BANK29  BANK30  BANK31
  4354 ;;      Params:         2       0       0       0       0       0       0       0       0       0       0       0       
      +0       0       0       0       0       0       0       0       0       0       0       0       0       0       0       
      +0       0       0       0       0       0
  4355 ;;      Locals:         0       0       0       0       0       0       0       0       0       0       0       0       
      +0       0       0       0       0       0       0       0       0       0       0       0       0       0       0       
      +0       0       0       0       0       0
  4356 ;;      Temps:          0       0       0       0       0       0       0       0       0       0       0       0       
      +0       0       0       0       0       0       0       0       0       0       0       0       0       0       0       
      +0       0       0       0       0       0
  4357 ;;      Totals:         2       0       0       0       0       0       0       0       0       0       0       0       
      +0       0       0       0       0       0       0       0       0       0       0       0       0       0       0       
      +0       0       0       0       0       0
  4358 ;;Total ram usage:        2 bytes
  4359 ;; Hardware stack levels used:    1
  4360 ;; Hardware stack levels required when called:    3
  4361 ;; This function calls:
  4362 ;;		Nothing
  4363 ;; This function is called by:
  4364 ;;		_main
  4365 ;; This function uses a non-reentrant model
  4366 ;;
  4367                           
  4368                           	psect	text13
  4369  003C7E                     __ptext13:
  4370                           	callstack 0
  4371  003C7E                     _inicializar_filtro_fir:
  4372                           	callstack 27
  4373  003C7E                     
  4374                           ;fir.c: 8:     filtro -> k = 0;
  4375  003C7E  0060  F05F  FFD9   	movff	inicializar_filtro_fir@filtro,fsr2l
  4376  003C84  0060  F063  FFDA   	movff	inicializar_filtro_fir@filtro+1,fsr2h
  4377  003C8A  0E00               	movlw	0
  4378  003C8C  6EDE               	movwf	postinc2,c
  4379  003C8E  0E00               	movlw	0
  4380  003C90  6EDD               	movwf	postdec2,c
  4381  003C92                     
  4382                           ;fir.c: 9:     filtro -> x_index = 0;
  4383  003C92  EE20 F002          	lfsr	2,2
  4384  003C96  5017               	movf	inicializar_filtro_fir@filtro^0,w,c
  4385  003C98  26D9               	addwf	fsr2l,f,c
  4386  003C9A  5018               	movf	(inicializar_filtro_fir@filtro+1)^0,w,c
  4387  003C9C  22DA               	addwfc	fsr2h,f,c
  4388  003C9E  0E00               	movlw	0
  4389  003CA0  6EDE               	movwf	postinc2,c
  4390  003CA2  0E00               	movlw	0
  4391  003CA4  6EDD               	movwf	postdec2,c
  4392  003CA6  0012               	return		;funcret
  4393  003CA8                     __end_of_inicializar_filtro_fir:
  4394                           	callstack 0
  4395                           
  4396 ;; *************** function _filtrar_fir_apuntadores *****************
  4397 ;; Defined at:
  4398 ;;		line 33 in file "fir.c"
  4399 ;; Parameters:    Size  Location     Type
  4400 ;;  in_filtro       2   34[COMRAM] unsigned short 
  4401 ;;  coeficientes    2   36[COMRAM] PTR short 
  4402 ;;		 -> coef4(62), 
  4403 ;;  orden_filtro    2   38[COMRAM] unsigned short 
  4404 ;;  x               2   40[COMRAM] PTR unsigned short 
  4405 ;;		 -> x1(36), 
  4406 ;;  filtro          2   42[COMRAM] PTR struct .
  4407 ;;		 -> filtro_fir_1(8), 
  4408 ;; Auto vars:     Size  Location     Type
  4409 ;;  i               2    0[BANK0 ] int 
  4410 ;; Return value:  Size  Location     Type
  4411 ;;                  4   34[COMRAM] long 
  4412 ;; Registers used:
  4413 ;;		wreg, fsr1l, fsr1h, fsr2l, fsr2h, status,2, status,0, cstack
  4414 ;; Tracked objects:
  4415 ;;		On entry : 0/0
  4416 ;;		On exit  : 0/0
  4417 ;;		Unchanged: 0/0
  4418 ;; Data sizes:     COMRAM   BANK0   BANK1   BANK2   BANK3   BANK4   BANK5   BANK6   BANK7   BANK8   BANK9  BANK10  BANK1
      +1  BANK12  BANK13  BANK14  BANK15  BANK16  BANK17  BANK18  BANK19  BANK20  BANK21  BANK22  BANK23  BANK24  BANK25  BANK2
      +6  BANK27  BANK28  BANK29  BANK30  BANK31
  4419 ;;      Params:        10       0       0       0       0       0       0       0       0       0       0       0       
      +0       0       0       0       0       0       0       0       0       0       0       0       0       0       0       
      +0       0       0       0       0       0
  4420 ;;      Locals:         0       4       0       0       0       0       0       0       0       0       0       0       
      +0       0       0       0       0       0       0       0       0       0       0       0       0       0       0       
      +0       0       0       0       0       0
  4421 ;;      Temps:          6       0       0       0       0       0       0       0       0       0       0       0       
      +0       0       0       0       0       0       0       0       0       0       0       0       0       0       0       
      +0       0       0       0       0       0
  4422 ;;      Totals:        16       4       0       0       0       0       0       0       0       0       0       0       
      +0       0       0       0       0       0       0       0       0       0       0       0       0       0       0       
      +0       0       0       0       0       0
  4423 ;;Total ram usage:       20 bytes
  4424 ;; Hardware stack levels used:    1
  4425 ;; Hardware stack levels required when called:    4
  4426 ;; This function calls:
  4427 ;;		___lmul
  4428 ;; This function is called by:
  4429 ;;		_main
  4430 ;; This function uses a non-reentrant model
  4431 ;;
  4432                           
  4433                           	psect	text14
  4434  002CB4                     __ptext14:
  4435                           	callstack 0
  4436  002CB4                     _filtrar_fir_apuntadores:
  4437                           	callstack 26
  4438  002CB4                     
  4439                           ;fir.c: 34:     x[filtro->k] = in_filtro;
  4440  002CB4  0060  F0AF  FFD9   	movff	filtrar_fir_apuntadores@filtro,fsr2l
  4441  002CBA  0060  F0B3  FFDA   	movff	filtrar_fir_apuntadores@filtro+1,fsr2h
  4442  002CC0  006F FF78  F02D    	movff	postinc2,??_filtrar_fir_apuntadores
  4443  002CC6  006F FF74  F02E    	movff	postdec2,??_filtrar_fir_apuntadores+1
  4444  002CCC  90D8               	bcf	status,0,c
  4445  002CCE  362D               	rlcf	??_filtrar_fir_apuntadores^0,f,c
  4446  002CD0  362E               	rlcf	(??_filtrar_fir_apuntadores+1)^0,f,c
  4447  002CD2  502D               	movf	??_filtrar_fir_apuntadores^0,w,c
  4448  002CD4  2429               	addwf	filtrar_fir_apuntadores@x^0,w,c
  4449  002CD6  6ED9               	movwf	fsr2l,c
  4450  002CD8  502E               	movf	(??_filtrar_fir_apuntadores+1)^0,w,c
  4451  002CDA  202A               	addwfc	(filtrar_fir_apuntadores@x+1)^0,w,c
  4452  002CDC  6EDA               	movwf	fsr2h,c
  4453  002CDE  0060  F08F  FFDE   	movff	filtrar_fir_apuntadores@in_filtro,postinc2
  4454  002CE4  0060  F093  FFDD   	movff	filtrar_fir_apuntadores@in_filtro+1,postdec2
  4455  002CEA                     
  4456                           ;fir.c: 35:     filtro->x_index = filtro->k;
  4457  002CEA  0060  F0AF  FFD9   	movff	filtrar_fir_apuntadores@filtro,fsr2l
  4458  002CF0  0060  F0B3  FFDA   	movff	filtrar_fir_apuntadores@filtro+1,fsr2h
  4459  002CF6  EE10 F002          	lfsr	1,2
  4460  002CFA  502B               	movf	filtrar_fir_apuntadores@filtro^0,w,c
  4461  002CFC  26E1               	addwf	fsr1l,f,c
  4462  002CFE  502C               	movf	(filtrar_fir_apuntadores@filtro+1)^0,w,c
  4463  002D00  22E2               	addwfc	fsr1h,f,c
  4464  002D02  006F FF7B FFE6     	movff	postinc2,postinc1
  4465  002D08  006F FF77 FFE5     	movff	postdec2,postdec1
  4466  002D0E                     
  4467                           ;fir.c: 36:     filtro->pointer_coef = &coeficientes[0];
  4468  002D0E  EE20 F004          	lfsr	2,4
  4469  002D12  502B               	movf	filtrar_fir_apuntadores@filtro^0,w,c
  4470  002D14  26D9               	addwf	fsr2l,f,c
  4471  002D16  502C               	movf	(filtrar_fir_apuntadores@filtro+1)^0,w,c
  4472  002D18  22DA               	addwfc	fsr2h,f,c
  4473  002D1A  0060  F097  FFDE   	movff	filtrar_fir_apuntadores@coeficientes,postinc2
  4474  002D20  0060  F09B  FFDD   	movff	filtrar_fir_apuntadores@coeficientes+1,postdec2
  4475  002D26                     
  4476                           ;fir.c: 37:     filtro->pointer_x = &x[filtro->x_index];
  4477  002D26  EE20 F002          	lfsr	2,2
  4478  002D2A  502B               	movf	filtrar_fir_apuntadores@filtro^0,w,c
  4479  002D2C  26D9               	addwf	fsr2l,f,c
  4480  002D2E  502C               	movf	(filtrar_fir_apuntadores@filtro+1)^0,w,c
  4481  002D30  22DA               	addwfc	fsr2h,f,c
  4482  002D32  006F FF78  F02D    	movff	postinc2,??_filtrar_fir_apuntadores
  4483  002D38  006F FF74  F02E    	movff	postdec2,??_filtrar_fir_apuntadores+1
  4484  002D3E  90D8               	bcf	status,0,c
  4485  002D40  362D               	rlcf	??_filtrar_fir_apuntadores^0,f,c
  4486  002D42  362E               	rlcf	(??_filtrar_fir_apuntadores+1)^0,f,c
  4487  002D44  C029  F02F         	movff	filtrar_fir_apuntadores@x,??_filtrar_fir_apuntadores+2
  4488  002D48  C02A  F030         	movff	filtrar_fir_apuntadores@x+1,??_filtrar_fir_apuntadores+3
  4489  002D4C  502D               	movf	??_filtrar_fir_apuntadores^0,w,c
  4490  002D4E  262F               	addwf	(??_filtrar_fir_apuntadores+2)^0,f,c
  4491  002D50  502E               	movf	(??_filtrar_fir_apuntadores+1)^0,w,c
  4492  002D52  2230               	addwfc	(??_filtrar_fir_apuntadores+3)^0,f,c
  4493  002D54  EE20 F006          	lfsr	2,6
  4494  002D58  502B               	movf	filtrar_fir_apuntadores@filtro^0,w,c
  4495  002D5A  26D9               	addwf	fsr2l,f,c
  4496  002D5C  502C               	movf	(filtrar_fir_apuntadores@filtro+1)^0,w,c
  4497  002D5E  22DA               	addwfc	fsr2h,f,c
  4498  002D60  0060  F0BF  FFDE   	movff	??_filtrar_fir_apuntadores+2,postinc2
  4499  002D66  0060  F0C3  FFDD   	movff	??_filtrar_fir_apuntadores+3,postdec2
  4500  002D6C                     
  4501                           ;fir.c: 38:     out_filtro = 0;
  4502  002D6C  0E00               	movlw	0
  4503  002D6E  0100               	movlb	0	; () banked
  4504  002D70  6FB9               	movwf	_out_filtro& (0+255),b
  4505  002D72  0E00               	movlw	0
  4506  002D74  6FBA               	movwf	(_out_filtro+1)& (0+255),b
  4507  002D76  0E00               	movlw	0
  4508  002D78  6FBB               	movwf	(_out_filtro+2)& (0+255),b
  4509  002D7A  0E00               	movlw	0
  4510  002D7C  6FBC               	movwf	(_out_filtro+3)& (0+255),b
  4511  002D7E                     
  4512                           ; BSR set to: 0
  4513                           ;fir.c: 40:     for(int i=0; i<orden_filtro; i++){
  4514  002D7E  0E00               	movlw	0
  4515  002D80  6FDA               	movwf	(filtrar_fir_apuntadores@i+1)& (0+255),b
  4516  002D82  0E00               	movlw	0
  4517  002D84  6FD9               	movwf	filtrar_fir_apuntadores@i& (0+255),b
  4518  002D86  EF6C  F017         	goto	l3691
  4519  002D8A                     l3681:
  4520                           
  4521                           ; BSR set to: 0
  4522                           ;fir.c: 41:         out_filtro += (long)(*(filtro->pointer_coef))*(long)(*(filtro->point
      +                          er_x));
  4523  002D8A  EE20 F004          	lfsr	2,4
  4524  002D8E  502B               	movf	filtrar_fir_apuntadores@filtro^0,w,c
  4525  002D90  26D9               	addwf	fsr2l,f,c
  4526  002D92  502C               	movf	(filtrar_fir_apuntadores@filtro+1)^0,w,c
  4527  002D94  22DA               	addwfc	fsr2h,f,c
  4528  002D96  006F FF78  F02D    	movff	postinc2,??_filtrar_fir_apuntadores
  4529  002D9C  006F FF74  F02E    	movff	postdec2,??_filtrar_fir_apuntadores+1
  4530  002DA2  0060  F0B7  FFD9   	movff	??_filtrar_fir_apuntadores,fsr2l
  4531  002DA8  0060  F0BB  FFDA   	movff	??_filtrar_fir_apuntadores+1,fsr2h
  4532  002DAE  006F FF78  F017    	movff	postinc2,___lmul@multiplier
  4533  002DB4  006F FF74  F018    	movff	postdec2,___lmul@multiplier+1
  4534  002DBA  0E00               	movlw	0
  4535  002DBC  BE18               	btfsc	(___lmul@multiplier+1)^0,7,c
  4536  002DBE  0EFF               	movlw	-1
  4537  002DC0  6E19               	movwf	(___lmul@multiplier+2)^0,c
  4538  002DC2  6E1A               	movwf	(___lmul@multiplier+3)^0,c
  4539  002DC4  EE20 F006          	lfsr	2,6
  4540  002DC8  502B               	movf	filtrar_fir_apuntadores@filtro^0,w,c
  4541  002DCA  26D9               	addwf	fsr2l,f,c
  4542  002DCC  502C               	movf	(filtrar_fir_apuntadores@filtro+1)^0,w,c
  4543  002DCE  22DA               	addwfc	fsr2h,f,c
  4544  002DD0  006F FF78  F02F    	movff	postinc2,??_filtrar_fir_apuntadores+2
  4545  002DD6  006F FF74  F030    	movff	postdec2,??_filtrar_fir_apuntadores+3
  4546  002DDC  0060  F0BF  FFD9   	movff	??_filtrar_fir_apuntadores+2,fsr2l
  4547  002DE2  0060  F0C3  FFDA   	movff	??_filtrar_fir_apuntadores+3,fsr2h
  4548  002DE8  006F FF78  F031    	movff	postinc2,??_filtrar_fir_apuntadores+4
  4549  002DEE  006F FF74  F032    	movff	postdec2,??_filtrar_fir_apuntadores+5
  4550  002DF4  C031  F01B         	movff	??_filtrar_fir_apuntadores+4,___lmul@multiplicand
  4551  002DF8  C032  F01C         	movff	??_filtrar_fir_apuntadores+5,___lmul@multiplicand+1
  4552  002DFC  6A1D               	clrf	(___lmul@multiplicand+2)^0,c
  4553  002DFE  6A1E               	clrf	(___lmul@multiplicand+3)^0,c
  4554  002E00  ECAE  F01C         	call	___lmul	;wreg free
  4555  002E04  5017               	movf	?___lmul^0,w,c
  4556  002E06  0100               	movlb	0	; () banked
  4557  002E08  27B9               	addwf	_out_filtro& (0+255),f,b
  4558  002E0A  5018               	movf	(?___lmul+1)^0,w,c
  4559  002E0C  23BA               	addwfc	(_out_filtro+1)& (0+255),f,b
  4560  002E0E  5019               	movf	(?___lmul+2)^0,w,c
  4561  002E10  23BB               	addwfc	(_out_filtro+2)& (0+255),f,b
  4562  002E12  501A               	movf	(?___lmul+3)^0,w,c
  4563  002E14  23BC               	addwfc	(_out_filtro+3)& (0+255),f,b
  4564  002E16                     
  4565                           ; BSR set to: 0
  4566                           ;fir.c: 42:         if(filtro->x_index == 0){
  4567  002E16  EE20 F002          	lfsr	2,2
  4568  002E1A  502B               	movf	filtrar_fir_apuntadores@filtro^0,w,c
  4569  002E1C  26D9               	addwf	fsr2l,f,c
  4570  002E1E  502C               	movf	(filtrar_fir_apuntadores@filtro+1)^0,w,c
  4571  002E20  22DA               	addwfc	fsr2h,f,c
  4572  002E22  50DE               	movf	postinc2,w,c
  4573  002E24  10DE               	iorwf	postinc2,w,c
  4574  002E26  A4D8               	btfss	status,2,c
  4575  002E28  EF18  F017         	goto	u3371
  4576  002E2C  EF1A  F017         	goto	u3370
  4577  002E30                     u3371:
  4578  002E30  EF34  F017         	goto	l3687
  4579  002E34                     u3370:
  4580  002E34                     
  4581                           ; BSR set to: 0
  4582                           ;fir.c: 43:             filtro->x_index = orden_filtro - 1;
  4583  002E34  0EFF               	movlw	255
  4584  002E36  6E2D               	movwf	??_filtrar_fir_apuntadores^0,c
  4585  002E38  0EFF               	movlw	255
  4586  002E3A  6E2E               	movwf	(??_filtrar_fir_apuntadores+1)^0,c
  4587  002E3C  C027  F02F         	movff	filtrar_fir_apuntadores@orden_filtro,??_filtrar_fir_apuntadores+2
  4588  002E40  C028  F030         	movff	filtrar_fir_apuntadores@orden_filtro+1,??_filtrar_fir_apuntadores+3
  4589  002E44  502D               	movf	??_filtrar_fir_apuntadores^0,w,c
  4590  002E46  262F               	addwf	(??_filtrar_fir_apuntadores+2)^0,f,c
  4591  002E48  502E               	movf	(??_filtrar_fir_apuntadores+1)^0,w,c
  4592  002E4A  2230               	addwfc	(??_filtrar_fir_apuntadores+3)^0,f,c
  4593  002E4C  EE20 F002          	lfsr	2,2
  4594  002E50  502B               	movf	filtrar_fir_apuntadores@filtro^0,w,c
  4595  002E52  26D9               	addwf	fsr2l,f,c
  4596  002E54  502C               	movf	(filtrar_fir_apuntadores@filtro+1)^0,w,c
  4597  002E56  22DA               	addwfc	fsr2h,f,c
  4598  002E58  0060  F0BF  FFDE   	movff	??_filtrar_fir_apuntadores+2,postinc2
  4599  002E5E  0060  F0C3  FFDD   	movff	??_filtrar_fir_apuntadores+3,postdec2
  4600                           
  4601                           ;fir.c: 44:         }
  4602  002E64  EF3D  F017         	goto	l557
  4603  002E68                     l3687:
  4604                           
  4605                           ; BSR set to: 0
  4606                           ;fir.c: 46:             (filtro->x_index)--;
  4607  002E68  EE20 F002          	lfsr	2,2
  4608  002E6C  502B               	movf	filtrar_fir_apuntadores@filtro^0,w,c
  4609  002E6E  26D9               	addwf	fsr2l,f,c
  4610  002E70  502C               	movf	(filtrar_fir_apuntadores@filtro+1)^0,w,c
  4611  002E72  22DA               	addwfc	fsr2h,f,c
  4612  002E74  06DE               	decf	postinc2,f,c
  4613  002E76  0E00               	movlw	0
  4614  002E78  5ADD               	subwfb	postdec2,f,c
  4615  002E7A                     l557:
  4616                           
  4617                           ; BSR set to: 0
  4618                           ;fir.c: 48:         filtro->pointer_x = &x[filtro->x_index];
  4619  002E7A  EE20 F002          	lfsr	2,2
  4620  002E7E  502B               	movf	filtrar_fir_apuntadores@filtro^0,w,c
  4621  002E80  26D9               	addwf	fsr2l,f,c
  4622  002E82  502C               	movf	(filtrar_fir_apuntadores@filtro+1)^0,w,c
  4623  002E84  22DA               	addwfc	fsr2h,f,c
  4624  002E86  006F FF78  F02D    	movff	postinc2,??_filtrar_fir_apuntadores
  4625  002E8C  006F FF74  F02E    	movff	postdec2,??_filtrar_fir_apuntadores+1
  4626  002E92  90D8               	bcf	status,0,c
  4627  002E94  362D               	rlcf	??_filtrar_fir_apuntadores^0,f,c
  4628  002E96  362E               	rlcf	(??_filtrar_fir_apuntadores+1)^0,f,c
  4629  002E98  C029  F02F         	movff	filtrar_fir_apuntadores@x,??_filtrar_fir_apuntadores+2
  4630  002E9C  C02A  F030         	movff	filtrar_fir_apuntadores@x+1,??_filtrar_fir_apuntadores+3
  4631  002EA0  502D               	movf	??_filtrar_fir_apuntadores^0,w,c
  4632  002EA2  262F               	addwf	(??_filtrar_fir_apuntadores+2)^0,f,c
  4633  002EA4  502E               	movf	(??_filtrar_fir_apuntadores+1)^0,w,c
  4634  002EA6  2230               	addwfc	(??_filtrar_fir_apuntadores+3)^0,f,c
  4635  002EA8  EE20 F006          	lfsr	2,6
  4636  002EAC  502B               	movf	filtrar_fir_apuntadores@filtro^0,w,c
  4637  002EAE  26D9               	addwf	fsr2l,f,c
  4638  002EB0  502C               	movf	(filtrar_fir_apuntadores@filtro+1)^0,w,c
  4639  002EB2  22DA               	addwfc	fsr2h,f,c
  4640  002EB4  0060  F0BF  FFDE   	movff	??_filtrar_fir_apuntadores+2,postinc2
  4641  002EBA  0060  F0C3  FFDD   	movff	??_filtrar_fir_apuntadores+3,postdec2
  4642                           
  4643                           ;fir.c: 49:         (filtro->pointer_coef)++;
  4644  002EC0  EE20 F004          	lfsr	2,4
  4645  002EC4  502B               	movf	filtrar_fir_apuntadores@filtro^0,w,c
  4646  002EC6  26D9               	addwf	fsr2l,f,c
  4647  002EC8  502C               	movf	(filtrar_fir_apuntadores@filtro+1)^0,w,c
  4648  002ECA  22DA               	addwfc	fsr2h,f,c
  4649  002ECC  0E02               	movlw	2
  4650  002ECE  26DE               	addwf	postinc2,f,c
  4651  002ED0  0E00               	movlw	0
  4652  002ED2  22DD               	addwfc	postdec2,f,c
  4653  002ED4                     
  4654                           ; BSR set to: 0
  4655                           ;fir.c: 50:     }
  4656  002ED4  4BD9               	infsnz	filtrar_fir_apuntadores@i& (0+255),f,b
  4657  002ED6  2BDA               	incf	(filtrar_fir_apuntadores@i+1)& (0+255),f,b
  4658  002ED8                     l3691:
  4659                           
  4660                           ; BSR set to: 0
  4661  002ED8  5027               	movf	filtrar_fir_apuntadores@orden_filtro^0,w,c
  4662  002EDA  5DD9               	subwf	filtrar_fir_apuntadores@i& (0+255),w,b
  4663  002EDC  5028               	movf	(filtrar_fir_apuntadores@orden_filtro+1)^0,w,c
  4664  002EDE  59DA               	subwfb	(filtrar_fir_apuntadores@i+1)& (0+255),w,b
  4665  002EE0  A0D8               	btfss	status,0,c
  4666  002EE2  EF75  F017         	goto	u3381
  4667  002EE6  EF77  F017         	goto	u3380
  4668  002EEA                     u3381:
  4669  002EEA  EFC5  F016         	goto	l3681
  4670  002EEE                     u3380:
  4671  002EEE                     
  4672                           ; BSR set to: 0
  4673                           ;fir.c: 51:     (filtro->k)++;
  4674  002EEE  0060  F0AF  FFD9   	movff	filtrar_fir_apuntadores@filtro,fsr2l
  4675  002EF4  0060  F0B3  FFDA   	movff	filtrar_fir_apuntadores@filtro+1,fsr2h
  4676  002EFA  2ADE               	incf	postinc2,f,c
  4677  002EFC  0E00               	movlw	0
  4678  002EFE  22DD               	addwfc	postdec2,f,c
  4679                           
  4680                           ;fir.c: 52:     (filtro->k) = ((filtro->k) >= orden_filtro) ? 0 : (filtro->k);
  4681  002F00  0060  F0AF  FFD9   	movff	filtrar_fir_apuntadores@filtro,fsr2l
  4682  002F06  0060  F0B3  FFDA   	movff	filtrar_fir_apuntadores@filtro+1,fsr2h
  4683  002F0C  5027               	movf	filtrar_fir_apuntadores@orden_filtro^0,w,c
  4684  002F0E  5CDE               	subwf	postinc2,w,c
  4685  002F10  5028               	movf	(filtrar_fir_apuntadores@orden_filtro+1)^0,w,c
  4686  002F12  58DE               	subwfb	postinc2,w,c
  4687  002F14  B0D8               	btfsc	status,0,c
  4688  002F16  EF8F  F017         	goto	u3391
  4689  002F1A  EF91  F017         	goto	u3390
  4690  002F1E                     u3391:
  4691  002F1E  EF9F  F017         	goto	l3697
  4692  002F22                     u3390:
  4693  002F22                     
  4694                           ; BSR set to: 0
  4695  002F22  0060  F0AF  FFD9   	movff	filtrar_fir_apuntadores@filtro,fsr2l
  4696  002F28  0060  F0B3  FFDA   	movff	filtrar_fir_apuntadores@filtro+1,fsr2h
  4697  002F2E  006F FF78  F0DB    	movff	postinc2,_filtrar_fir_apuntadores$1591
  4698  002F34  006F FF74  F0DC    	movff	postdec2,_filtrar_fir_apuntadores$1591+1
  4699  002F3A  EFA3  F017         	goto	l3699
  4700  002F3E                     l3697:
  4701                           
  4702                           ; BSR set to: 0
  4703  002F3E  0E00               	movlw	0
  4704  002F40  6FDC               	movwf	(_filtrar_fir_apuntadores$1591+1)& (0+255),b
  4705  002F42  0E00               	movlw	0
  4706  002F44  6FDB               	movwf	_filtrar_fir_apuntadores$1591& (0+255),b
  4707  002F46                     l3699:
  4708                           
  4709                           ; BSR set to: 0
  4710  002F46  0060  F0AF  FFD9   	movff	filtrar_fir_apuntadores@filtro,fsr2l
  4711  002F4C  0060  F0B3  FFDA   	movff	filtrar_fir_apuntadores@filtro+1,fsr2h
  4712  002F52  0060  F36F  FFDE   	movff	_filtrar_fir_apuntadores$1591,postinc2
  4713  002F58  0060  F373  FFDD   	movff	_filtrar_fir_apuntadores$1591+1,postdec2
  4714  002F5E                     
  4715                           ; BSR set to: 0
  4716                           ;fir.c: 53:     return out_filtro>>16;
  4717  002F5E  0E10               	movlw	16
  4718  002F60  6E2D               	movwf	??_filtrar_fir_apuntadores^0,c
  4719  002F62  C0B9  F02E         	movff	_out_filtro,??_filtrar_fir_apuntadores+1
  4720  002F66  C0BA  F02F         	movff	_out_filtro+1,??_filtrar_fir_apuntadores+2
  4721  002F6A  C0BB  F030         	movff	_out_filtro+2,??_filtrar_fir_apuntadores+3
  4722  002F6E  C0BC  F031         	movff	_out_filtro+3,??_filtrar_fir_apuntadores+4
  4723  002F72                     u3405:
  4724  002F72  662D               	tstfsz	??_filtrar_fir_apuntadores^0,c
  4725  002F74  EFBE  F017         	goto	u3406
  4726  002F78  EFC6  F017         	goto	u3407
  4727  002F7C                     u3406:
  4728  002F7C  3431               	rlcf	(??_filtrar_fir_apuntadores+4)^0,w,c
  4729  002F7E  3231               	rrcf	(??_filtrar_fir_apuntadores+4)^0,f,c
  4730  002F80  3230               	rrcf	(??_filtrar_fir_apuntadores+3)^0,f,c
  4731  002F82  322F               	rrcf	(??_filtrar_fir_apuntadores+2)^0,f,c
  4732  002F84  322E               	rrcf	(??_filtrar_fir_apuntadores+1)^0,f,c
  4733  002F86  2E2D               	decfsz	??_filtrar_fir_apuntadores^0,f,c
  4734  002F88  EFB9  F017         	goto	u3405
  4735  002F8C                     u3407:
  4736  002F8C  C02E  F023         	movff	??_filtrar_fir_apuntadores+1,?_filtrar_fir_apuntadores
  4737  002F90  C02F  F024         	movff	??_filtrar_fir_apuntadores+2,?_filtrar_fir_apuntadores+1
  4738  002F94  C030  F025         	movff	??_filtrar_fir_apuntadores+3,?_filtrar_fir_apuntadores+2
  4739  002F98  C031  F026         	movff	??_filtrar_fir_apuntadores+4,?_filtrar_fir_apuntadores+3
  4740  002F9C  0012               	return		;funcret
  4741  002F9E                     __end_of_filtrar_fir_apuntadores:
  4742                           	callstack 0
  4743                           
  4744 ;; *************** function ___lmul *****************
  4745 ;; Defined at:
  4746 ;;		line 15 in file "C:\Program Files\Microchip\xc8\v2.31\pic\sources\c99\common\Umul32.c"
  4747 ;; Parameters:    Size  Location     Type
  4748 ;;  multiplier      4   22[COMRAM] unsigned long 
  4749 ;;  multiplicand    4   26[COMRAM] unsigned long 
  4750 ;; Auto vars:     Size  Location     Type
  4751 ;;  product         4   30[COMRAM] unsigned long 
  4752 ;; Return value:  Size  Location     Type
  4753 ;;                  4   22[COMRAM] unsigned long 
  4754 ;; Registers used:
  4755 ;;		wreg, status,2, status,0
  4756 ;; Tracked objects:
  4757 ;;		On entry : 0/0
  4758 ;;		On exit  : 0/0
  4759 ;;		Unchanged: 0/0
  4760 ;; Data sizes:     COMRAM   BANK0   BANK1   BANK2   BANK3   BANK4   BANK5   BANK6   BANK7   BANK8   BANK9  BANK10  BANK1
      +1  BANK12  BANK13  BANK14  BANK15  BANK16  BANK17  BANK18  BANK19  BANK20  BANK21  BANK22  BANK23  BANK24  BANK25  BANK2
      +6  BANK27  BANK28  BANK29  BANK30  BANK31
  4761 ;;      Params:         8       0       0       0       0       0       0       0       0       0       0       0       
      +0       0       0       0       0       0       0       0       0       0       0       0       0       0       0       
      +0       0       0       0       0       0
  4762 ;;      Locals:         4       0       0       0       0       0       0       0       0       0       0       0       
      +0       0       0       0       0       0       0       0       0       0       0       0       0       0       0       
      +0       0       0       0       0       0
  4763 ;;      Temps:          0       0       0       0       0       0       0       0       0       0       0       0       
      +0       0       0       0       0       0       0       0       0       0       0       0       0       0       0       
      +0       0       0       0       0       0
  4764 ;;      Totals:        12       0       0       0       0       0       0       0       0       0       0       0       
      +0       0       0       0       0       0       0       0       0       0       0       0       0       0       0       
      +0       0       0       0       0       0
  4765 ;;Total ram usage:       12 bytes
  4766 ;; Hardware stack levels used:    1
  4767 ;; Hardware stack levels required when called:    3
  4768 ;; This function calls:
  4769 ;;		Nothing
  4770 ;; This function is called by:
  4771 ;;		_filtrar_fir_apuntadores
  4772 ;;		_filtrar_fir_indices
  4773 ;; This function uses a non-reentrant model
  4774 ;;
  4775                           
  4776                           	psect	text15
  4777  00395C                     __ptext15:
  4778                           	callstack 0
  4779  00395C                     ___lmul:
  4780                           	callstack 26
  4781  00395C  0E00               	movlw	0
  4782  00395E  6E1F               	movwf	___lmul@product^0,c
  4783  003960  0E00               	movlw	0
  4784  003962  6E20               	movwf	(___lmul@product+1)^0,c
  4785  003964  0E00               	movlw	0
  4786  003966  6E21               	movwf	(___lmul@product+2)^0,c
  4787  003968  0E00               	movlw	0
  4788  00396A  6E22               	movwf	(___lmul@product+3)^0,c
  4789  00396C                     l3425:
  4790  00396C  A017               	btfss	___lmul@multiplier^0,0,c
  4791  00396E  EFBB  F01C         	goto	u3011
  4792  003972  EFBD  F01C         	goto	u3010
  4793  003976                     u3011:
  4794  003976  EFC5  F01C         	goto	l3429
  4795  00397A                     u3010:
  4796  00397A  501B               	movf	___lmul@multiplicand^0,w,c
  4797  00397C  261F               	addwf	___lmul@product^0,f,c
  4798  00397E  501C               	movf	(___lmul@multiplicand+1)^0,w,c
  4799  003980  2220               	addwfc	(___lmul@product+1)^0,f,c
  4800  003982  501D               	movf	(___lmul@multiplicand+2)^0,w,c
  4801  003984  2221               	addwfc	(___lmul@product+2)^0,f,c
  4802  003986  501E               	movf	(___lmul@multiplicand+3)^0,w,c
  4803  003988  2222               	addwfc	(___lmul@product+3)^0,f,c
  4804  00398A                     l3429:
  4805  00398A  90D8               	bcf	status,0,c
  4806  00398C  361B               	rlcf	___lmul@multiplicand^0,f,c
  4807  00398E  361C               	rlcf	(___lmul@multiplicand+1)^0,f,c
  4808  003990  361D               	rlcf	(___lmul@multiplicand+2)^0,f,c
  4809  003992  361E               	rlcf	(___lmul@multiplicand+3)^0,f,c
  4810  003994  90D8               	bcf	status,0,c
  4811  003996  321A               	rrcf	(___lmul@multiplier+3)^0,f,c
  4812  003998  3219               	rrcf	(___lmul@multiplier+2)^0,f,c
  4813  00399A  3218               	rrcf	(___lmul@multiplier+1)^0,f,c
  4814  00399C  3217               	rrcf	___lmul@multiplier^0,f,c
  4815  00399E  5017               	movf	___lmul@multiplier^0,w,c
  4816  0039A0  1018               	iorwf	(___lmul@multiplier+1)^0,w,c
  4817  0039A2  1019               	iorwf	(___lmul@multiplier+2)^0,w,c
  4818  0039A4  101A               	iorwf	(___lmul@multiplier+3)^0,w,c
  4819  0039A6  A4D8               	btfss	status,2,c
  4820  0039A8  EFD8  F01C         	goto	u3021
  4821  0039AC  EFDA  F01C         	goto	u3020
  4822  0039B0                     u3021:
  4823  0039B0  EFB6  F01C         	goto	l3425
  4824  0039B4                     u3020:
  4825  0039B4  C01F  F017         	movff	___lmul@product,?___lmul
  4826  0039B8  C020  F018         	movff	___lmul@product+1,?___lmul+1
  4827  0039BC  C021  F019         	movff	___lmul@product+2,?___lmul+2
  4828  0039C0  C022  F01A         	movff	___lmul@product+3,?___lmul+3
  4829  0039C4  0012               	return		;funcret
  4830  0039C6                     __end_of___lmul:
  4831                           	callstack 0
  4832                           
  4833 ;; *************** function _bcd_2_hexascii *****************
  4834 ;; Defined at:
  4835 ;;		line 31 in file "uart.c"
  4836 ;; Parameters:    Size  Location     Type
  4837 ;;  number          2   22[COMRAM] unsigned short 
  4838 ;;  digits_ascii    2   24[COMRAM] PTR unsigned char 
  4839 ;;		 -> lecturas_ascii(9), 
  4840 ;;  desfase         1   26[COMRAM] unsigned char 
  4841 ;; Auto vars:     Size  Location     Type
  4842 ;;  digit           1   30[COMRAM] unsigned char 
  4843 ;;  i               1   31[COMRAM] unsigned char 
  4844 ;; Return value:  Size  Location     Type
  4845 ;;                  1    wreg      void 
  4846 ;; Registers used:
  4847 ;;		wreg, fsr2l, fsr2h, status,2, status,0
  4848 ;; Tracked objects:
  4849 ;;		On entry : 0/0
  4850 ;;		On exit  : 0/0
  4851 ;;		Unchanged: 0/0
  4852 ;; Data sizes:     COMRAM   BANK0   BANK1   BANK2   BANK3   BANK4   BANK5   BANK6   BANK7   BANK8   BANK9  BANK10  BANK1
      +1  BANK12  BANK13  BANK14  BANK15  BANK16  BANK17  BANK18  BANK19  BANK20  BANK21  BANK22  BANK23  BANK24  BANK25  BANK2
      +6  BANK27  BANK28  BANK29  BANK30  BANK31
  4853 ;;      Params:         5       0       0       0       0       0       0       0       0       0       0       0       
      +0       0       0       0       0       0       0       0       0       0       0       0       0       0       0       
      +0       0       0       0       0       0
  4854 ;;      Locals:         2       0       0       0       0       0       0       0       0       0       0       0       
      +0       0       0       0       0       0       0       0       0       0       0       0       0       0       0       
      +0       0       0       0       0       0
  4855 ;;      Temps:          3       0       0       0       0       0       0       0       0       0       0       0       
      +0       0       0       0       0       0       0       0       0       0       0       0       0       0       0       
      +0       0       0       0       0       0
  4856 ;;      Totals:        10       0       0       0       0       0       0       0       0       0       0       0       
      +0       0       0       0       0       0       0       0       0       0       0       0       0       0       0       
      +0       0       0       0       0       0
  4857 ;;Total ram usage:       10 bytes
  4858 ;; Hardware stack levels used:    1
  4859 ;; Hardware stack levels required when called:    3
  4860 ;; This function calls:
  4861 ;;		Nothing
  4862 ;; This function is called by:
  4863 ;;		_main
  4864 ;; This function uses a non-reentrant model
  4865 ;;
  4866                           
  4867                           	psect	text16
  4868  00385C                     __ptext16:
  4869                           	callstack 0
  4870  00385C                     _bcd_2_hexascii:
  4871                           	callstack 27
  4872  00385C                     
  4873                           ;uart.c: 32:     for(uint8_t i = 0; i<4; i++){
  4874  00385C  0E00               	movlw	0
  4875  00385E  6E20               	movwf	bcd_2_hexascii@i^0,c
  4876  003860                     l3005:
  4877                           
  4878                           ;uart.c: 33:         uint8_t digit = 0x0F & (uint8_t)(number>>((3-i)*4));
  4879  003860  5020               	movf	bcd_2_hexascii@i^0,w,c
  4880  003862  0803               	sublw	3
  4881  003864  6E1C               	movwf	??_bcd_2_hexascii^0,c
  4882  003866  90D8               	bcf	status,0,c
  4883  003868  361C               	rlcf	??_bcd_2_hexascii^0,f,c
  4884  00386A  90D8               	bcf	status,0,c
  4885  00386C  361C               	rlcf	??_bcd_2_hexascii^0,f,c
  4886  00386E  C017  F01D         	movff	bcd_2_hexascii@number,??_bcd_2_hexascii+1
  4887  003872  C018  F01E         	movff	bcd_2_hexascii@number+1,??_bcd_2_hexascii+2
  4888  003876  2A1C               	incf	??_bcd_2_hexascii^0,f,c
  4889  003878  EF41  F01C         	goto	u2394
  4890  00387C                     u2395:
  4891  00387C  90D8               	bcf	status,0,c
  4892  00387E  321E               	rrcf	(??_bcd_2_hexascii+2)^0,f,c
  4893  003880  321D               	rrcf	(??_bcd_2_hexascii+1)^0,f,c
  4894  003882                     u2394:
  4895  003882  2E1C               	decfsz	??_bcd_2_hexascii^0,f,c
  4896  003884  EF3E  F01C         	goto	u2395
  4897  003888  501D               	movf	(??_bcd_2_hexascii+1)^0,w,c
  4898  00388A  0B0F               	andlw	15
  4899  00388C  6E1F               	movwf	bcd_2_hexascii@digit^0,c
  4900                           
  4901                           ;uart.c: 34:         if(digit < 10){
  4902  00388E  0E0A               	movlw	10
  4903  003890  601F               	cpfslt	bcd_2_hexascii@digit^0,c
  4904  003892  EF4D  F01C         	goto	u2401
  4905  003896  EF4F  F01C         	goto	u2400
  4906  00389A                     u2401:
  4907  00389A  EF60  F01C         	goto	l3009
  4908  00389E                     u2400:
  4909  00389E                     
  4910                           ;uart.c: 35:             digits_ascii[i+desfase] = digit + '0';
  4911  00389E  5020               	movf	bcd_2_hexascii@i^0,w,c
  4912  0038A0  2419               	addwf	bcd_2_hexascii@digits_ascii^0,w,c
  4913  0038A2  6E1C               	movwf	??_bcd_2_hexascii^0,c
  4914  0038A4  0E00               	movlw	0
  4915  0038A6  201A               	addwfc	(bcd_2_hexascii@digits_ascii+1)^0,w,c
  4916  0038A8  6E1D               	movwf	(??_bcd_2_hexascii+1)^0,c
  4917  0038AA  501B               	movf	bcd_2_hexascii@desfase^0,w,c
  4918  0038AC  241C               	addwf	??_bcd_2_hexascii^0,w,c
  4919  0038AE  6ED9               	movwf	fsr2l,c
  4920  0038B0  0E00               	movlw	0
  4921  0038B2  201D               	addwfc	(??_bcd_2_hexascii+1)^0,w,c
  4922  0038B4  6EDA               	movwf	fsr2h,c
  4923  0038B6  501F               	movf	bcd_2_hexascii@digit^0,w,c
  4924  0038B8  0F30               	addlw	48
  4925  0038BA  6EDF               	movwf	indf2,c
  4926                           
  4927                           ;uart.c: 36:         }else{
  4928  0038BC  EF6F  F01C         	goto	l3011
  4929  0038C0                     l3009:
  4930                           
  4931                           ;uart.c: 37:             digits_ascii[i+desfase] = digit + 55;
  4932  0038C0  5020               	movf	bcd_2_hexascii@i^0,w,c
  4933  0038C2  2419               	addwf	bcd_2_hexascii@digits_ascii^0,w,c
  4934  0038C4  6E1C               	movwf	??_bcd_2_hexascii^0,c
  4935  0038C6  0E00               	movlw	0
  4936  0038C8  201A               	addwfc	(bcd_2_hexascii@digits_ascii+1)^0,w,c
  4937  0038CA  6E1D               	movwf	(??_bcd_2_hexascii+1)^0,c
  4938  0038CC  501B               	movf	bcd_2_hexascii@desfase^0,w,c
  4939  0038CE  241C               	addwf	??_bcd_2_hexascii^0,w,c
  4940  0038D0  6ED9               	movwf	fsr2l,c
  4941  0038D2  0E00               	movlw	0
  4942  0038D4  201D               	addwfc	(??_bcd_2_hexascii+1)^0,w,c
  4943  0038D6  6EDA               	movwf	fsr2h,c
  4944  0038D8  501F               	movf	bcd_2_hexascii@digit^0,w,c
  4945  0038DA  0F37               	addlw	55
  4946  0038DC  6EDF               	movwf	indf2,c
  4947  0038DE                     l3011:
  4948                           
  4949                           ;uart.c: 39:     }
  4950  0038DE  2A20               	incf	bcd_2_hexascii@i^0,f,c
  4951  0038E0  0E03               	movlw	3
  4952  0038E2  6420               	cpfsgt	bcd_2_hexascii@i^0,c
  4953  0038E4  EF76  F01C         	goto	u2411
  4954  0038E8  EF78  F01C         	goto	u2410
  4955  0038EC                     u2411:
  4956  0038EC  EF30  F01C         	goto	l3005
  4957  0038F0                     u2410:
  4958  0038F0  0012               	return		;funcret
  4959  0038F2                     __end_of_bcd_2_hexascii:
  4960                           	callstack 0
  4961                           
  4962 ;; *************** function _adc_config *****************
  4963 ;; Defined at:
  4964 ;;		line 15 in file "adc.c"
  4965 ;; Parameters:    Size  Location     Type
  4966 ;;  interrupt_en    1    wreg     unsigned char 
  4967 ;; Auto vars:     Size  Location     Type
  4968 ;;  interrupt_en    1   22[COMRAM] unsigned char 
  4969 ;; Return value:  Size  Location     Type
  4970 ;;                  1    wreg      void 
  4971 ;; Registers used:
  4972 ;;		wreg, status,2
  4973 ;; Tracked objects:
  4974 ;;		On entry : 0/0
  4975 ;;		On exit  : 0/0
  4976 ;;		Unchanged: 0/0
  4977 ;; Data sizes:     COMRAM   BANK0   BANK1   BANK2   BANK3   BANK4   BANK5   BANK6   BANK7   BANK8   BANK9  BANK10  BANK1
      +1  BANK12  BANK13  BANK14  BANK15  BANK16  BANK17  BANK18  BANK19  BANK20  BANK21  BANK22  BANK23  BANK24  BANK25  BANK2
      +6  BANK27  BANK28  BANK29  BANK30  BANK31
  4978 ;;      Params:         0       0       0       0       0       0       0       0       0       0       0       0       
      +0       0       0       0       0       0       0       0       0       0       0       0       0       0       0       
      +0       0       0       0       0       0
  4979 ;;      Locals:         1       0       0       0       0       0       0       0       0       0       0       0       
      +0       0       0       0       0       0       0       0       0       0       0       0       0       0       0       
      +0       0       0       0       0       0
  4980 ;;      Temps:          0       0       0       0       0       0       0       0       0       0       0       0       
      +0       0       0       0       0       0       0       0       0       0       0       0       0       0       0       
      +0       0       0       0       0       0
  4981 ;;      Totals:         1       0       0       0       0       0       0       0       0       0       0       0       
      +0       0       0       0       0       0       0       0       0       0       0       0       0       0       0       
      +0       0       0       0       0       0
  4982 ;;Total ram usage:        1 bytes
  4983 ;; Hardware stack levels used:    1
  4984 ;; Hardware stack levels required when called:    3
  4985 ;; This function calls:
  4986 ;;		Nothing
  4987 ;; This function is called by:
  4988 ;;		_main
  4989 ;; This function uses a non-reentrant model
  4990 ;;
  4991                           
  4992                           	psect	text17
  4993  003BA4                     __ptext17:
  4994                           	callstack 0
  4995  003BA4                     _adc_config:
  4996                           	callstack 27
  4997                           
  4998                           ;incstack = 0
  4999                           ;adc_config@interrupt_ena stored from wreg
  5000  003BA4  6E17               	movwf	adc_config@interrupt_ena^0,c
  5001  003BA6                     
  5002                           ;adc.c: 16:     INTCON0bits.GIE = 0;
  5003  003BA6  9ED2               	bcf	210,7,c	;volatile
  5004  003BA8                     
  5005                           ;adc.c: 18:     ADCON0bits.FM = 1;
  5006  003BA8  013E               	movlb	62	; () banked
  5007  003BAA  51F8               	movf	248,w,b	;volatile
  5008  003BAC  0BF3               	andlw	-13
  5009  003BAE  0904               	iorlw	4
  5010  003BB0  6FF8               	movwf	248,b	;volatile
  5011  003BB2                     
  5012                           ; BSR set to: 62
  5013                           ;adc.c: 19:     ADCON0bits.CS = 0;
  5014  003BB2  99F8               	bcf	248,4,b	;volatile
  5015                           
  5016                           ;adc.c: 20:     ADCON2bits.MD = 0b000;
  5017  003BB4  0EF8               	movlw	-8
  5018  003BB6  17FA               	andwf	250,f,b	;volatile
  5019                           
  5020                           ;adc.c: 21:     ADCLKbits.CS = 0b010001;
  5021  003BB8  51FF               	movf	255,w,b	;volatile
  5022  003BBA  0BC0               	andlw	-64
  5023  003BBC  0911               	iorlw	17
  5024  003BBE  6FFF               	movwf	255,b	;volatile
  5025                           
  5026                           ;adc.c: 23:     ADREFbits.NREF = 0;
  5027  003BC0  0E0F               	movlw	-241
  5028  003BC2  17FD               	andwf	253,f,b	;volatile
  5029                           
  5030                           ;adc.c: 24:     ADREFbits.PREF = 0b11;
  5031  003BC4  51FD               	movf	253,w,b	;volatile
  5032  003BC6  0BF0               	andlw	-16
  5033  003BC8  0903               	iorlw	3
  5034  003BCA  6FFD               	movwf	253,b	;volatile
  5035                           
  5036                           ;adc.c: 27:     ADPCHbits.PCH = 0b000000;
  5037  003BCC  0EC0               	movlw	-64
  5038  003BCE  17F1               	andwf	241,f,b	;volatile
  5039  003BD0                     
  5040                           ; BSR set to: 62
  5041                           ;adc.c: 28:     ADCON0bits.ON = 1;
  5042  003BD0  8FF8               	bsf	248,7,b	;volatile
  5043  003BD2                     
  5044                           ; BSR set to: 62
  5045                           ;adc.c: 29:     ADCON0bits.GO = 0;
  5046  003BD2  91F8               	bcf	248,0,b	;volatile
  5047                           
  5048                           ;adc.c: 31:     if(interrupt_ena){
  5049  003BD4  5017               	movf	adc_config@interrupt_ena^0,w,c
  5050  003BD6  B4D8               	btfsc	status,2,c
  5051  003BD8  EFF0  F01D         	goto	u2341
  5052  003BDC  EFF2  F01D         	goto	u2340
  5053  003BE0                     u2341:
  5054  003BE0  EFF5  F01D         	goto	l420
  5055  003BE4                     u2340:
  5056  003BE4                     
  5057                           ; BSR set to: 62
  5058                           ;adc.c: 32:         PIR1bits.ADIF = 0;
  5059  003BE4  0139               	movlb	57	; () banked
  5060  003BE6  95A1               	bcf	161,2,b	;volatile
  5061                           
  5062                           ;adc.c: 33:         PIE1bits.ADIE = 1;
  5063  003BE8  8591               	bsf	145,2,b	;volatile
  5064  003BEA                     l420:
  5065                           
  5066                           ;adc.c: 36:     INTCON0bits.GIE = 1;
  5067  003BEA  8ED2               	bsf	210,7,c	;volatile
  5068  003BEC  0012               	return		;funcret
  5069  003BEE                     __end_of_adc_config:
  5070                           	callstack 0
  5071                           
  5072 ;; *************** function _SYSTEM_Initialize *****************
  5073 ;; Defined at:
  5074 ;;		line 50 in file "mcc_generated_files/mcc.c"
  5075 ;; Parameters:    Size  Location     Type
  5076 ;;		None
  5077 ;; Auto vars:     Size  Location     Type
  5078 ;;		None
  5079 ;; Return value:  Size  Location     Type
  5080 ;;                  1    wreg      void 
  5081 ;; Registers used:
  5082 ;;		wreg, status,2, cstack
  5083 ;; Tracked objects:
  5084 ;;		On entry : 0/0
  5085 ;;		On exit  : 0/0
  5086 ;;		Unchanged: 0/0
  5087 ;; Data sizes:     COMRAM   BANK0   BANK1   BANK2   BANK3   BANK4   BANK5   BANK6   BANK7   BANK8   BANK9  BANK10  BANK1
      +1  BANK12  BANK13  BANK14  BANK15  BANK16  BANK17  BANK18  BANK19  BANK20  BANK21  BANK22  BANK23  BANK24  BANK25  BANK2
      +6  BANK27  BANK28  BANK29  BANK30  BANK31
  5088 ;;      Params:         0       0       0       0       0       0       0       0       0       0       0       0       
      +0       0       0       0       0       0       0       0       0       0       0       0       0       0       0       
      +0       0       0       0       0       0
  5089 ;;      Locals:         0       0       0       0       0       0       0       0       0       0       0       0       
      +0       0       0       0       0       0       0       0       0       0       0       0       0       0       0       
      +0       0       0       0       0       0
  5090 ;;      Temps:          0       0       0       0       0       0       0       0       0       0       0       0       
      +0       0       0       0       0       0       0       0       0       0       0       0       0       0       0       
      +0       0       0       0       0       0
  5091 ;;      Totals:         0       0       0       0       0       0       0       0       0       0       0       0       
      +0       0       0       0       0       0       0       0       0       0       0       0       0       0       0       
      +0       0       0       0       0       0
  5092 ;;Total ram usage:        0 bytes
  5093 ;; Hardware stack levels used:    1
  5094 ;; Hardware stack levels required when called:    4
  5095 ;; This function calls:
  5096 ;;		_OSCILLATOR_Initialize
  5097 ;;		_PIN_MANAGER_Initialize
  5098 ;;		_PMD_Initialize
  5099 ;;		_SPI1_Initialize
  5100 ;; This function is called by:
  5101 ;;		_main
  5102 ;; This function uses a non-reentrant model
  5103 ;;
  5104                           
  5105                           	psect	text18
  5106  003D5A                     __ptext18:
  5107                           	callstack 0
  5108  003D5A                     _SYSTEM_Initialize:
  5109                           	callstack 26
  5110  003D5A                     
  5111                           ;mcc_generated_files/mcc.c: 52:     PMD_Initialize();
  5112  003D5A  EC7B  F01E         	call	_PMD_Initialize	;wreg free
  5113                           
  5114                           ;mcc_generated_files/mcc.c: 53:     PIN_MANAGER_Initialize();
  5115  003D5E  EC90  F01B         	call	_PIN_MANAGER_Initialize	;wreg free
  5116                           
  5117                           ;mcc_generated_files/mcc.c: 54:     OSCILLATOR_Initialize();
  5118  003D62  EC8D  F01E         	call	_OSCILLATOR_Initialize	;wreg free
  5119                           
  5120                           ;mcc_generated_files/mcc.c: 55:     SPI1_Initialize();
  5121  003D66  EC68  F01E         	call	_SPI1_Initialize	;wreg free
  5122  003D6A  0012               	return		;funcret
  5123  003D6C                     __end_of_SYSTEM_Initialize:
  5124                           	callstack 0
  5125                           
  5126 ;; *************** function _SPI1_Initialize *****************
  5127 ;; Defined at:
  5128 ;;		line 64 in file "mcc_generated_files/spi1.c"
  5129 ;; Parameters:    Size  Location     Type
  5130 ;;		None
  5131 ;; Auto vars:     Size  Location     Type
  5132 ;;		None
  5133 ;; Return value:  Size  Location     Type
  5134 ;;                  1    wreg      void 
  5135 ;; Registers used:
  5136 ;;		wreg, status,2
  5137 ;; Tracked objects:
  5138 ;;		On entry : 0/0
  5139 ;;		On exit  : 0/0
  5140 ;;		Unchanged: 0/0
  5141 ;; Data sizes:     COMRAM   BANK0   BANK1   BANK2   BANK3   BANK4   BANK5   BANK6   BANK7   BANK8   BANK9  BANK10  BANK1
      +1  BANK12  BANK13  BANK14  BANK15  BANK16  BANK17  BANK18  BANK19  BANK20  BANK21  BANK22  BANK23  BANK24  BANK25  BANK2
      +6  BANK27  BANK28  BANK29  BANK30  BANK31
  5142 ;;      Params:         0       0       0       0       0       0       0       0       0       0       0       0       
      +0       0       0       0       0       0       0       0       0       0       0       0       0       0       0       
      +0       0       0       0       0       0
  5143 ;;      Locals:         0       0       0       0       0       0       0       0       0       0       0       0       
      +0       0       0       0       0       0       0       0       0       0       0       0       0       0       0       
      +0       0       0       0       0       0
  5144 ;;      Temps:          0       0       0       0       0       0       0       0       0       0       0       0       
      +0       0       0       0       0       0       0       0       0       0       0       0       0       0       0       
      +0       0       0       0       0       0
  5145 ;;      Totals:         0       0       0       0       0       0       0       0       0       0       0       0       
      +0       0       0       0       0       0       0       0       0       0       0       0       0       0       0       
      +0       0       0       0       0       0
  5146 ;;Total ram usage:        0 bytes
  5147 ;; Hardware stack levels used:    1
  5148 ;; Hardware stack levels required when called:    3
  5149 ;; This function calls:
  5150 ;;		Nothing
  5151 ;; This function is called by:
  5152 ;;		_SYSTEM_Initialize
  5153 ;;		_main
  5154 ;; This function uses a non-reentrant model
  5155 ;;
  5156                           
  5157                           	psect	text19
  5158  003CD0                     __ptext19:
  5159                           	callstack 0
  5160  003CD0                     _SPI1_Initialize:
  5161                           	callstack 26
  5162  003CD0                     
  5163                           ;mcc_generated_files/spi1.c: 67:     SPI1CON0 = 0x83;
  5164  003CD0  0E83               	movlw	131
  5165  003CD2  013D               	movlb	61	; () banked
  5166  003CD4  6F14               	movwf	20,b	;volatile
  5167                           
  5168                           ;mcc_generated_files/spi1.c: 69:     SPI1CON1 = 0x00;
  5169  003CD6  0E00               	movlw	0
  5170  003CD8  6F15               	movwf	21,b	;volatile
  5171                           
  5172                           ;mcc_generated_files/spi1.c: 71:     SPI1CON2 = 0x02;
  5173  003CDA  0E02               	movlw	2
  5174  003CDC  6F16               	movwf	22,b	;volatile
  5175                           
  5176                           ;mcc_generated_files/spi1.c: 73:     SPI1CLK = 0x00;
  5177  003CDE  0E00               	movlw	0
  5178  003CE0  6F1C               	movwf	28,b	;volatile
  5179                           
  5180                           ;mcc_generated_files/spi1.c: 75:     SPI1BAUD = 0x10;
  5181  003CE2  0E10               	movlw	16
  5182  003CE4  6F19               	movwf	25,b	;volatile
  5183  003CE6                     
  5184                           ; BSR set to: 61
  5185                           ;mcc_generated_files/spi1.c: 76:     TRISCbits.TRISC3 = 0;
  5186  003CE6  96C4               	bcf	196,3,c	;volatile
  5187                           
  5188                           ;mcc_generated_files/spi1.c: 77:     SPI1TWIDTH = 0;
  5189  003CE8  0E00               	movlw	0
  5190  003CEA  6F18               	movwf	24,b	;volatile
  5191                           
  5192                           ;mcc_generated_files/spi1.c: 78:     SPI1TCNT = 0x2;
  5193  003CEC  0E00               	movlw	0
  5194  003CEE  6F13               	movwf	19,b	;volatile
  5195  003CF0  0E02               	movlw	2
  5196  003CF2  6F12               	movwf	18,b	;volatile
  5197  003CF4                     
  5198                           ; BSR set to: 61
  5199  003CF4  0012               	return		;funcret
  5200  003CF6                     __end_of_SPI1_Initialize:
  5201                           	callstack 0
  5202                           
  5203 ;; *************** function _PMD_Initialize *****************
  5204 ;; Defined at:
  5205 ;;		line 72 in file "mcc_generated_files/mcc.c"
  5206 ;; Parameters:    Size  Location     Type
  5207 ;;		None
  5208 ;; Auto vars:     Size  Location     Type
  5209 ;;		None
  5210 ;; Return value:  Size  Location     Type
  5211 ;;                  1    wreg      void 
  5212 ;; Registers used:
  5213 ;;		wreg, status,2
  5214 ;; Tracked objects:
  5215 ;;		On entry : 0/0
  5216 ;;		On exit  : 0/0
  5217 ;;		Unchanged: 0/0
  5218 ;; Data sizes:     COMRAM   BANK0   BANK1   BANK2   BANK3   BANK4   BANK5   BANK6   BANK7   BANK8   BANK9  BANK10  BANK1
      +1  BANK12  BANK13  BANK14  BANK15  BANK16  BANK17  BANK18  BANK19  BANK20  BANK21  BANK22  BANK23  BANK24  BANK25  BANK2
      +6  BANK27  BANK28  BANK29  BANK30  BANK31
  5219 ;;      Params:         0       0       0       0       0       0       0       0       0       0       0       0       
      +0       0       0       0       0       0       0       0       0       0       0       0       0       0       0       
      +0       0       0       0       0       0
  5220 ;;      Locals:         0       0       0       0       0       0       0       0       0       0       0       0       
      +0       0       0       0       0       0       0       0       0       0       0       0       0       0       0       
      +0       0       0       0       0       0
  5221 ;;      Temps:          0       0       0       0       0       0       0       0       0       0       0       0       
      +0       0       0       0       0       0       0       0       0       0       0       0       0       0       0       
      +0       0       0       0       0       0
  5222 ;;      Totals:         0       0       0       0       0       0       0       0       0       0       0       0       
      +0       0       0       0       0       0       0       0       0       0       0       0       0       0       0       
      +0       0       0       0       0       0
  5223 ;;Total ram usage:        0 bytes
  5224 ;; Hardware stack levels used:    1
  5225 ;; Hardware stack levels required when called:    3
  5226 ;; This function calls:
  5227 ;;		Nothing
  5228 ;; This function is called by:
  5229 ;;		_SYSTEM_Initialize
  5230 ;; This function uses a non-reentrant model
  5231 ;;
  5232                           
  5233                           	psect	text20
  5234  003CF6                     __ptext20:
  5235                           	callstack 0
  5236  003CF6                     _PMD_Initialize:
  5237                           	callstack 26
  5238  003CF6                     
  5239                           ;mcc_generated_files/mcc.c: 75:     PMD0 = 0x00;
  5240  003CF6  0E00               	movlw	0
  5241  003CF8  0139               	movlb	57	; () banked
  5242  003CFA  6FC0               	movwf	192,b	;volatile
  5243                           
  5244                           ;mcc_generated_files/mcc.c: 77:     PMD1 = 0x00;
  5245  003CFC  0E00               	movlw	0
  5246  003CFE  6FC1               	movwf	193,b	;volatile
  5247                           
  5248                           ;mcc_generated_files/mcc.c: 79:     PMD2 = 0x00;
  5249  003D00  0E00               	movlw	0
  5250  003D02  6FC2               	movwf	194,b	;volatile
  5251                           
  5252                           ;mcc_generated_files/mcc.c: 81:     PMD3 = 0x00;
  5253  003D04  0E00               	movlw	0
  5254  003D06  6FC3               	movwf	195,b	;volatile
  5255                           
  5256                           ;mcc_generated_files/mcc.c: 83:     PMD4 = 0x00;
  5257  003D08  0E00               	movlw	0
  5258  003D0A  6FC4               	movwf	196,b	;volatile
  5259                           
  5260                           ;mcc_generated_files/mcc.c: 85:     PMD5 = 0x00;
  5261  003D0C  0E00               	movlw	0
  5262  003D0E  6FC5               	movwf	197,b	;volatile
  5263                           
  5264                           ;mcc_generated_files/mcc.c: 87:     PMD6 = 0x00;
  5265  003D10  0E00               	movlw	0
  5266  003D12  6FC6               	movwf	198,b	;volatile
  5267                           
  5268                           ;mcc_generated_files/mcc.c: 89:     PMD7 = 0x00;
  5269  003D14  0E00               	movlw	0
  5270  003D16  6FC7               	movwf	199,b	;volatile
  5271  003D18                     
  5272                           ; BSR set to: 57
  5273  003D18  0012               	return		;funcret
  5274  003D1A                     __end_of_PMD_Initialize:
  5275                           	callstack 0
  5276                           
  5277 ;; *************** function _PIN_MANAGER_Initialize *****************
  5278 ;; Defined at:
  5279 ;;		line 55 in file "mcc_generated_files/pin_manager.c"
  5280 ;; Parameters:    Size  Location     Type
  5281 ;;		None
  5282 ;; Auto vars:     Size  Location     Type
  5283 ;;		None
  5284 ;; Return value:  Size  Location     Type
  5285 ;;                  1    wreg      void 
  5286 ;; Registers used:
  5287 ;;		wreg, status,2
  5288 ;; Tracked objects:
  5289 ;;		On entry : 0/0
  5290 ;;		On exit  : 0/0
  5291 ;;		Unchanged: 0/0
  5292 ;; Data sizes:     COMRAM   BANK0   BANK1   BANK2   BANK3   BANK4   BANK5   BANK6   BANK7   BANK8   BANK9  BANK10  BANK1
      +1  BANK12  BANK13  BANK14  BANK15  BANK16  BANK17  BANK18  BANK19  BANK20  BANK21  BANK22  BANK23  BANK24  BANK25  BANK2
      +6  BANK27  BANK28  BANK29  BANK30  BANK31
  5293 ;;      Params:         0       0       0       0       0       0       0       0       0       0       0       0       
      +0       0       0       0       0       0       0       0       0       0       0       0       0       0       0       
      +0       0       0       0       0       0
  5294 ;;      Locals:         0       0       0       0       0       0       0       0       0       0       0       0       
      +0       0       0       0       0       0       0       0       0       0       0       0       0       0       0       
      +0       0       0       0       0       0
  5295 ;;      Temps:          0       0       0       0       0       0       0       0       0       0       0       0       
      +0       0       0       0       0       0       0       0       0       0       0       0       0       0       0       
      +0       0       0       0       0       0
  5296 ;;      Totals:         0       0       0       0       0       0       0       0       0       0       0       0       
      +0       0       0       0       0       0       0       0       0       0       0       0       0       0       0       
      +0       0       0       0       0       0
  5297 ;;Total ram usage:        0 bytes
  5298 ;; Hardware stack levels used:    1
  5299 ;; Hardware stack levels required when called:    3
  5300 ;; This function calls:
  5301 ;;		Nothing
  5302 ;; This function is called by:
  5303 ;;		_SYSTEM_Initialize
  5304 ;; This function uses a non-reentrant model
  5305 ;;
  5306                           
  5307                           	psect	text21
  5308  003720                     __ptext21:
  5309                           	callstack 0
  5310  003720                     _PIN_MANAGER_Initialize:
  5311                           	callstack 26
  5312  003720                     
  5313                           ;mcc_generated_files/pin_manager.c: 60:     LATE = 0x00;
  5314  003720  0E00               	movlw	0
  5315  003722  6EBE               	movwf	190,c	;volatile
  5316                           
  5317                           ;mcc_generated_files/pin_manager.c: 61:     LATD = 0x00;
  5318  003724  0E00               	movlw	0
  5319  003726  6EBD               	movwf	189,c	;volatile
  5320                           
  5321                           ;mcc_generated_files/pin_manager.c: 62:     LATA = 0x00;
  5322  003728  0E00               	movlw	0
  5323  00372A  6EBA               	movwf	186,c	;volatile
  5324                           
  5325                           ;mcc_generated_files/pin_manager.c: 63:     LATB = 0x00;
  5326  00372C  0E00               	movlw	0
  5327  00372E  6EBB               	movwf	187,c	;volatile
  5328                           
  5329                           ;mcc_generated_files/pin_manager.c: 64:     LATC = 0x00;
  5330  003730  0E00               	movlw	0
  5331  003732  6EBC               	movwf	188,c	;volatile
  5332                           
  5333                           ;mcc_generated_files/pin_manager.c: 69:     TRISE = 0x06;
  5334  003734  0E06               	movlw	6
  5335  003736  6EC6               	movwf	198,c	;volatile
  5336  003738                     
  5337                           ;mcc_generated_files/pin_manager.c: 70:     TRISA = 0xFF;
  5338  003738  68C2               	setf	194,c	;volatile
  5339                           
  5340                           ;mcc_generated_files/pin_manager.c: 71:     TRISB = 0xEF;
  5341  00373A  0EEF               	movlw	239
  5342  00373C  6EC3               	movwf	195,c	;volatile
  5343                           
  5344                           ;mcc_generated_files/pin_manager.c: 72:     TRISC = 0x97;
  5345  00373E  0E97               	movlw	151
  5346  003740  6EC4               	movwf	196,c	;volatile
  5347                           
  5348                           ;mcc_generated_files/pin_manager.c: 73:     TRISD = 0xF0;
  5349  003742  0EF0               	movlw	240
  5350  003744  6EC5               	movwf	197,c	;volatile
  5351  003746                     
  5352                           ;mcc_generated_files/pin_manager.c: 78:     ANSELD = 0xFF;
  5353  003746  013A               	movlb	58	; () banked
  5354  003748  6970               	setf	112,b	;volatile
  5355                           
  5356                           ;mcc_generated_files/pin_manager.c: 79:     ANSELC = 0x67;
  5357  00374A  0E67               	movlw	103
  5358  00374C  6F60               	movwf	96,b	;volatile
  5359  00374E                     
  5360                           ; BSR set to: 58
  5361                           ;mcc_generated_files/pin_manager.c: 80:     ANSELB = 0xFF;
  5362  00374E  6950               	setf	80,b	;volatile
  5363                           
  5364                           ;mcc_generated_files/pin_manager.c: 81:     ANSELE = 0x07;
  5365  003750  0E07               	movlw	7
  5366  003752  6F80               	movwf	128,b	;volatile
  5367  003754                     
  5368                           ; BSR set to: 58
  5369                           ;mcc_generated_files/pin_manager.c: 82:     ANSELA = 0xFF;
  5370  003754  6940               	setf	64,b	;volatile
  5371                           
  5372                           ;mcc_generated_files/pin_manager.c: 87:     WPUD = 0x00;
  5373  003756  0E00               	movlw	0
  5374  003758  6F71               	movwf	113,b	;volatile
  5375                           
  5376                           ;mcc_generated_files/pin_manager.c: 88:     WPUE = 0x00;
  5377  00375A  0E00               	movlw	0
  5378  00375C  6F81               	movwf	129,b	;volatile
  5379                           
  5380                           ;mcc_generated_files/pin_manager.c: 89:     WPUB = 0x00;
  5381  00375E  0E00               	movlw	0
  5382  003760  6F51               	movwf	81,b	;volatile
  5383                           
  5384                           ;mcc_generated_files/pin_manager.c: 90:     WPUA = 0x00;
  5385  003762  0E00               	movlw	0
  5386  003764  6F41               	movwf	65,b	;volatile
  5387                           
  5388                           ;mcc_generated_files/pin_manager.c: 91:     WPUC = 0x00;
  5389  003766  0E00               	movlw	0
  5390  003768  6F61               	movwf	97,b	;volatile
  5391                           
  5392                           ;mcc_generated_files/pin_manager.c: 96:     RB1I2C = 0x00;
  5393  00376A  0E00               	movlw	0
  5394  00376C  6F5A               	movwf	90,b	;volatile
  5395                           
  5396                           ;mcc_generated_files/pin_manager.c: 97:     RB2I2C = 0x00;
  5397  00376E  0E00               	movlw	0
  5398  003770  6F5B               	movwf	91,b	;volatile
  5399                           
  5400                           ;mcc_generated_files/pin_manager.c: 98:     RC3I2C = 0x00;
  5401  003772  0E00               	movlw	0
  5402  003774  6F6A               	movwf	106,b	;volatile
  5403                           
  5404                           ;mcc_generated_files/pin_manager.c: 99:     RC4I2C = 0x00;
  5405  003776  0E00               	movlw	0
  5406  003778  6F6B               	movwf	107,b	;volatile
  5407                           
  5408                           ;mcc_generated_files/pin_manager.c: 100:     RD0I2C = 0x00;
  5409  00377A  0E00               	movlw	0
  5410  00377C  6F7A               	movwf	122,b	;volatile
  5411                           
  5412                           ;mcc_generated_files/pin_manager.c: 101:     RD1I2C = 0x00;
  5413  00377E  0E00               	movlw	0
  5414  003780  6F7B               	movwf	123,b	;volatile
  5415                           
  5416                           ;mcc_generated_files/pin_manager.c: 106:     ODCONE = 0x00;
  5417  003782  0E00               	movlw	0
  5418  003784  6F82               	movwf	130,b	;volatile
  5419                           
  5420                           ;mcc_generated_files/pin_manager.c: 107:     ODCONA = 0x00;
  5421  003786  0E00               	movlw	0
  5422  003788  6F42               	movwf	66,b	;volatile
  5423                           
  5424                           ;mcc_generated_files/pin_manager.c: 108:     ODCONB = 0x00;
  5425  00378A  0E00               	movlw	0
  5426  00378C  6F52               	movwf	82,b	;volatile
  5427                           
  5428                           ;mcc_generated_files/pin_manager.c: 109:     ODCONC = 0x00;
  5429  00378E  0E00               	movlw	0
  5430  003790  6F62               	movwf	98,b	;volatile
  5431                           
  5432                           ;mcc_generated_files/pin_manager.c: 110:     ODCOND = 0x00;
  5433  003792  0E00               	movlw	0
  5434  003794  6F72               	movwf	114,b	;volatile
  5435  003796                     
  5436                           ; BSR set to: 58
  5437                           ;mcc_generated_files/pin_manager.c: 115:     SLRCONA = 0xFF;
  5438  003796  6943               	setf	67,b	;volatile
  5439  003798                     
  5440                           ; BSR set to: 58
  5441                           ;mcc_generated_files/pin_manager.c: 116:     SLRCONB = 0xFF;
  5442  003798  6953               	setf	83,b	;volatile
  5443  00379A                     
  5444                           ; BSR set to: 58
  5445                           ;mcc_generated_files/pin_manager.c: 117:     SLRCONC = 0xFF;
  5446  00379A  6963               	setf	99,b	;volatile
  5447  00379C                     
  5448                           ; BSR set to: 58
  5449                           ;mcc_generated_files/pin_manager.c: 118:     SLRCOND = 0xFF;
  5450  00379C  6973               	setf	115,b	;volatile
  5451                           
  5452                           ;mcc_generated_files/pin_manager.c: 119:     SLRCONE = 0x07;
  5453  00379E  0E07               	movlw	7
  5454  0037A0  6F83               	movwf	131,b	;volatile
  5455  0037A2                     
  5456                           ; BSR set to: 58
  5457                           ;mcc_generated_files/pin_manager.c: 124:     INLVLA = 0xFF;
  5458  0037A2  6944               	setf	68,b	;volatile
  5459  0037A4                     
  5460                           ; BSR set to: 58
  5461                           ;mcc_generated_files/pin_manager.c: 125:     INLVLB = 0xFF;
  5462  0037A4  6954               	setf	84,b	;volatile
  5463  0037A6                     
  5464                           ; BSR set to: 58
  5465                           ;mcc_generated_files/pin_manager.c: 126:     INLVLC = 0xFF;
  5466  0037A6  6964               	setf	100,b	;volatile
  5467  0037A8                     
  5468                           ; BSR set to: 58
  5469                           ;mcc_generated_files/pin_manager.c: 127:     INLVLD = 0xFF;
  5470  0037A8  6974               	setf	116,b	;volatile
  5471                           
  5472                           ;mcc_generated_files/pin_manager.c: 128:     INLVLE = 0x0F;
  5473  0037AA  0E0F               	movlw	15
  5474  0037AC  6F84               	movwf	132,b	;volatile
  5475                           
  5476                           ;mcc_generated_files/pin_manager.c: 137:     SPI1SCKPPS = 0x13;
  5477  0037AE  0E13               	movlw	19
  5478  0037B0  6FDE               	movwf	222,b	;volatile
  5479                           
  5480                           ;mcc_generated_files/pin_manager.c: 138:     RC3PPS = 0x1E;
  5481  0037B2  0E1E               	movlw	30
  5482  0037B4  6F13               	movwf	19,b	;volatile
  5483                           
  5484                           ;mcc_generated_files/pin_manager.c: 139:     RC5PPS = 0x1F;
  5485  0037B6  0E1F               	movlw	31
  5486  0037B8  6F15               	movwf	21,b	;volatile
  5487                           
  5488                           ;mcc_generated_files/pin_manager.c: 140:     SPI1SDIPPS = 0x14;
  5489  0037BA  0E14               	movlw	20
  5490  0037BC  6FDF               	movwf	223,b	;volatile
  5491  0037BE                     
  5492                           ; BSR set to: 58
  5493  0037BE  0012               	return		;funcret
  5494  0037C0                     __end_of_PIN_MANAGER_Initialize:
  5495                           	callstack 0
  5496                           
  5497 ;; *************** function _OSCILLATOR_Initialize *****************
  5498 ;; Defined at:
  5499 ;;		line 58 in file "mcc_generated_files/mcc.c"
  5500 ;; Parameters:    Size  Location     Type
  5501 ;;		None
  5502 ;; Auto vars:     Size  Location     Type
  5503 ;;		None
  5504 ;; Return value:  Size  Location     Type
  5505 ;;                  1    wreg      void 
  5506 ;; Registers used:
  5507 ;;		wreg, status,2
  5508 ;; Tracked objects:
  5509 ;;		On entry : 0/0
  5510 ;;		On exit  : 0/0
  5511 ;;		Unchanged: 0/0
  5512 ;; Data sizes:     COMRAM   BANK0   BANK1   BANK2   BANK3   BANK4   BANK5   BANK6   BANK7   BANK8   BANK9  BANK10  BANK1
      +1  BANK12  BANK13  BANK14  BANK15  BANK16  BANK17  BANK18  BANK19  BANK20  BANK21  BANK22  BANK23  BANK24  BANK25  BANK2
      +6  BANK27  BANK28  BANK29  BANK30  BANK31
  5513 ;;      Params:         0       0       0       0       0       0       0       0       0       0       0       0       
      +0       0       0       0       0       0       0       0       0       0       0       0       0       0       0       
      +0       0       0       0       0       0
  5514 ;;      Locals:         0       0       0       0       0       0       0       0       0       0       0       0       
      +0       0       0       0       0       0       0       0       0       0       0       0       0       0       0       
      +0       0       0       0       0       0
  5515 ;;      Temps:          0       0       0       0       0       0       0       0       0       0       0       0       
      +0       0       0       0       0       0       0       0       0       0       0       0       0       0       0       
      +0       0       0       0       0       0
  5516 ;;      Totals:         0       0       0       0       0       0       0       0       0       0       0       0       
      +0       0       0       0       0       0       0       0       0       0       0       0       0       0       0       
      +0       0       0       0       0       0
  5517 ;;Total ram usage:        0 bytes
  5518 ;; Hardware stack levels used:    1
  5519 ;; Hardware stack levels required when called:    3
  5520 ;; This function calls:
  5521 ;;		Nothing
  5522 ;; This function is called by:
  5523 ;;		_SYSTEM_Initialize
  5524 ;; This function uses a non-reentrant model
  5525 ;;
  5526                           
  5527                           	psect	text22
  5528  003D1A                     __ptext22:
  5529                           	callstack 0
  5530  003D1A                     _OSCILLATOR_Initialize:
  5531                           	callstack 26
  5532  003D1A                     
  5533                           ;mcc_generated_files/mcc.c: 61:     OSCCON1 = 0x20;
  5534  003D1A  0E20               	movlw	32
  5535  003D1C  0139               	movlb	57	; () banked
  5536  003D1E  6FD9               	movwf	217,b	;volatile
  5537                           
  5538                           ;mcc_generated_files/mcc.c: 63:     OSCCON3 = 0x00;
  5539  003D20  0E00               	movlw	0
  5540  003D22  6FDB               	movwf	219,b	;volatile
  5541                           
  5542                           ;mcc_generated_files/mcc.c: 65:     OSCEN = 0x00;
  5543  003D24  0E00               	movlw	0
  5544  003D26  6FDD               	movwf	221,b	;volatile
  5545                           
  5546                           ;mcc_generated_files/mcc.c: 67:     OSCFRQ = 0x08;
  5547  003D28  0E08               	movlw	8
  5548  003D2A  6FDF               	movwf	223,b	;volatile
  5549                           
  5550                           ;mcc_generated_files/mcc.c: 69:     OSCTUNE = 0x00;
  5551  003D2C  0E00               	movlw	0
  5552  003D2E  6FDE               	movwf	222,b	;volatile
  5553  003D30                     
  5554                           ; BSR set to: 57
  5555  003D30  0012               	return		;funcret
  5556  003D32                     __end_of_OSCILLATOR_Initialize:
  5557                           	callstack 0
  5558                           
  5559 ;; *************** function _SPI_transmit *****************
  5560 ;; Defined at:
  5561 ;;		line 91 in file "mcc_generated_files/spi1.c"
  5562 ;; Parameters:    Size  Location     Type
  5563 ;;  lecturas        2   22[COMRAM] PTR unsigned short 
  5564 ;;		 -> lecturas_filtradas(4), 
  5565 ;; Auto vars:     Size  Location     Type
  5566 ;;		None
  5567 ;; Return value:  Size  Location     Type
  5568 ;;                  1    wreg      void 
  5569 ;; Registers used:
  5570 ;;		wreg, fsr2l, fsr2h, status,2, status,0, cstack
  5571 ;; Tracked objects:
  5572 ;;		On entry : 0/0
  5573 ;;		On exit  : 0/0
  5574 ;;		Unchanged: 0/0
  5575 ;; Data sizes:     COMRAM   BANK0   BANK1   BANK2   BANK3   BANK4   BANK5   BANK6   BANK7   BANK8   BANK9  BANK10  BANK1
      +1  BANK12  BANK13  BANK14  BANK15  BANK16  BANK17  BANK18  BANK19  BANK20  BANK21  BANK22  BANK23  BANK24  BANK25  BANK2
      +6  BANK27  BANK28  BANK29  BANK30  BANK31
  5576 ;;      Params:         2       0       0       0       0       0       0       0       0       0       0       0       
      +0       0       0       0       0       0       0       0       0       0       0       0       0       0       0       
      +0       0       0       0       0       0
  5577 ;;      Locals:         0       0       0       0       0       0       0       0       0       0       0       0       
      +0       0       0       0       0       0       0       0       0       0       0       0       0       0       0       
      +0       0       0       0       0       0
  5578 ;;      Temps:          2       0       0       0       0       0       0       0       0       0       0       0       
      +0       0       0       0       0       0       0       0       0       0       0       0       0       0       0       
      +0       0       0       0       0       0
  5579 ;;      Totals:         4       0       0       0       0       0       0       0       0       0       0       0       
      +0       0       0       0       0       0       0       0       0       0       0       0       0       0       0       
      +0       0       0       0       0       0
  5580 ;;Total ram usage:        4 bytes
  5581 ;; Hardware stack levels used:    1
  5582 ;; Hardware stack levels required when called:    4
  5583 ;; This function calls:
  5584 ;;		_SPI1_Close
  5585 ;;		_SPI1_Openv2
  5586 ;; This function is called by:
  5587 ;;		_main
  5588 ;; This function uses a non-reentrant model
  5589 ;;
  5590                           
  5591                           	psect	text23
  5592  0035C4                     __ptext23:
  5593                           	callstack 0
  5594  0035C4                     _SPI_transmit:
  5595                           	callstack 26
  5596  0035C4                     
  5597                           ;mcc_generated_files/spi1.c: 94:     SPI1_Openv2();
  5598  0035C4  ECCB  F01E         	call	_SPI1_Openv2	;wreg free
  5599  0035C8                     
  5600                           ;mcc_generated_files/spi1.c: 97:     LATEbits.LE0 = 0;
  5601  0035C8  90BE               	bcf	190,0,c	;volatile
  5602  0035CA                     
  5603                           ;mcc_generated_files/spi1.c: 100:     SPI1TXB = 0x20 | (lecturas[1] >> 8);
  5604  0035CA  EE20 F002          	lfsr	2,2
  5605  0035CE  5017               	movf	SPI_transmit@lecturas^0,w,c
  5606  0035D0  26D9               	addwf	fsr2l,f,c
  5607  0035D2  5018               	movf	(SPI_transmit@lecturas+1)^0,w,c
  5608  0035D4  22DA               	addwfc	fsr2h,f,c
  5609  0035D6  006F FF78  F019    	movff	postinc2,??_SPI_transmit
  5610  0035DC  006F FF74  F01A    	movff	postdec2,??_SPI_transmit+1
  5611  0035E2  C01A  F019         	movff	??_SPI_transmit+1,??_SPI_transmit
  5612  0035E6  6A1A               	clrf	(??_SPI_transmit+1)^0,c
  5613  0035E8  5019               	movf	??_SPI_transmit^0,w,c
  5614  0035EA  0920               	iorlw	32
  5615  0035EC  013D               	movlb	61	; () banked
  5616  0035EE  6F11               	movwf	17,b	;volatile
  5617  0035F0                     
  5618                           ; BSR set to: 61
  5619                           ;mcc_generated_files/spi1.c: 101:     SPI1TXB = lecturas[1];
  5620  0035F0  EE20 F002          	lfsr	2,2
  5621  0035F4  5017               	movf	SPI_transmit@lecturas^0,w,c
  5622  0035F6  26D9               	addwf	fsr2l,f,c
  5623  0035F8  5018               	movf	(SPI_transmit@lecturas+1)^0,w,c
  5624  0035FA  22DA               	addwfc	fsr2h,f,c
  5625  0035FC  50DF               	movf	indf2,w,c
  5626  0035FE  6F11               	movwf	17,b	;volatile
  5627  003600                     l83:
  5628                           
  5629                           ; BSR set to: 61
  5630  003600  AB17               	btfss	23,5,b	;volatile
  5631  003602  EF05  F01B         	goto	u2311
  5632  003606  EF07  F01B         	goto	u2310
  5633  00360A                     u2311:
  5634  00360A  EF00  F01B         	goto	l83
  5635  00360E                     u2310:
  5636  00360E                     
  5637                           ; BSR set to: 61
  5638                           ;mcc_generated_files/spi1.c: 107:     LATEbits.LE0 = 1;
  5639  00360E  80BE               	bsf	190,0,c	;volatile
  5640                           
  5641                           ;mcc_generated_files/spi1.c: 110:     LATBbits.LB4 = 0;
  5642  003610  98BB               	bcf	187,4,c	;volatile
  5643                           
  5644                           ;mcc_generated_files/spi1.c: 111:     LATBbits.LB4 = 0;
  5645  003612  98BB               	bcf	187,4,c	;volatile
  5646                           
  5647                           ;mcc_generated_files/spi1.c: 112:     LATBbits.LB4 = 0;
  5648  003614  98BB               	bcf	187,4,c	;volatile
  5649                           
  5650                           ;mcc_generated_files/spi1.c: 113:     LATBbits.LB4 = 1;
  5651  003616  88BB               	bsf	187,4,c	;volatile
  5652                           
  5653                           ;mcc_generated_files/spi1.c: 114:     LATBbits.LB4 = 1;
  5654  003618  88BB               	bsf	187,4,c	;volatile
  5655                           
  5656                           ;mcc_generated_files/spi1.c: 115:     LATBbits.LB4 = 1;
  5657  00361A  88BB               	bsf	187,4,c	;volatile
  5658                           
  5659                           ;mcc_generated_files/spi1.c: 116:     LATBbits.LB4 = 1;
  5660  00361C  88BB               	bsf	187,4,c	;volatile
  5661                           
  5662                           ;mcc_generated_files/spi1.c: 117:     LATBbits.LB4 = 1;
  5663  00361E  88BB               	bsf	187,4,c	;volatile
  5664                           
  5665                           ;mcc_generated_files/spi1.c: 118:     LATBbits.LB4 = 1;
  5666  003620  88BB               	bsf	187,4,c	;volatile
  5667                           
  5668                           ;mcc_generated_files/spi1.c: 119:     LATBbits.LB4 = 1;
  5669  003622  88BB               	bsf	187,4,c	;volatile
  5670                           
  5671                           ;mcc_generated_files/spi1.c: 122:     LATEbits.LE0 = 0;
  5672  003624  90BE               	bcf	190,0,c	;volatile
  5673  003626                     
  5674                           ; BSR set to: 61
  5675                           ;mcc_generated_files/spi1.c: 125:     SPI1TXB = 0xA0 | (lecturas[1] >> 8);
  5676  003626  EE20 F002          	lfsr	2,2
  5677  00362A  5017               	movf	SPI_transmit@lecturas^0,w,c
  5678  00362C  26D9               	addwf	fsr2l,f,c
  5679  00362E  5018               	movf	(SPI_transmit@lecturas+1)^0,w,c
  5680  003630  22DA               	addwfc	fsr2h,f,c
  5681  003632  006F FF78  F019    	movff	postinc2,??_SPI_transmit
  5682  003638  006F FF74  F01A    	movff	postdec2,??_SPI_transmit+1
  5683  00363E  C01A  F019         	movff	??_SPI_transmit+1,??_SPI_transmit
  5684  003642  6A1A               	clrf	(??_SPI_transmit+1)^0,c
  5685  003644  5019               	movf	??_SPI_transmit^0,w,c
  5686  003646  09A0               	iorlw	160
  5687  003648  6F11               	movwf	17,b	;volatile
  5688                           
  5689                           ;mcc_generated_files/spi1.c: 126:     SPI1TXB = lecturas[1];
  5690  00364A  EE20 F002          	lfsr	2,2
  5691  00364E  5017               	movf	SPI_transmit@lecturas^0,w,c
  5692  003650  26D9               	addwf	fsr2l,f,c
  5693  003652  5018               	movf	(SPI_transmit@lecturas+1)^0,w,c
  5694  003654  22DA               	addwfc	fsr2h,f,c
  5695  003656  50DF               	movf	indf2,w,c
  5696  003658  6F11               	movwf	17,b	;volatile
  5697  00365A                     l86:
  5698                           
  5699                           ; BSR set to: 61
  5700  00365A  AB17               	btfss	23,5,b	;volatile
  5701  00365C  EF32  F01B         	goto	u2321
  5702  003660  EF34  F01B         	goto	u2320
  5703  003664                     u2321:
  5704  003664  EF2D  F01B         	goto	l86
  5705  003668                     u2320:
  5706  003668                     
  5707                           ; BSR set to: 61
  5708                           ;mcc_generated_files/spi1.c: 132:     LATEbits.LE0 = 1;
  5709  003668  80BE               	bsf	190,0,c	;volatile
  5710                           
  5711                           ;mcc_generated_files/spi1.c: 135:     LATBbits.LB4 = 0;
  5712  00366A  98BB               	bcf	187,4,c	;volatile
  5713                           
  5714                           ;mcc_generated_files/spi1.c: 136:     LATBbits.LB4 = 0;
  5715  00366C  98BB               	bcf	187,4,c	;volatile
  5716                           
  5717                           ;mcc_generated_files/spi1.c: 137:     LATBbits.LB4 = 0;
  5718  00366E  98BB               	bcf	187,4,c	;volatile
  5719                           
  5720                           ;mcc_generated_files/spi1.c: 138:     LATBbits.LB4 = 1;
  5721  003670  88BB               	bsf	187,4,c	;volatile
  5722  003672                     
  5723                           ; BSR set to: 61
  5724                           ;mcc_generated_files/spi1.c: 141:     SPI1_Close();
  5725  003672  ECCE  F01E         	call	_SPI1_Close	;wreg free
  5726  003676  0012               	return		;funcret
  5727  003678                     __end_of_SPI_transmit:
  5728                           	callstack 0
  5729                           
  5730 ;; *************** function _SPI1_Openv2 *****************
  5731 ;; Defined at:
  5732 ;;		line 82 in file "mcc_generated_files/spi1.c"
  5733 ;; Parameters:    Size  Location     Type
  5734 ;;		None
  5735 ;; Auto vars:     Size  Location     Type
  5736 ;;		None
  5737 ;; Return value:  Size  Location     Type
  5738 ;;                  1    wreg      void 
  5739 ;; Registers used:
  5740 ;;		None
  5741 ;; Tracked objects:
  5742 ;;		On entry : 0/0
  5743 ;;		On exit  : 0/0
  5744 ;;		Unchanged: 0/0
  5745 ;; Data sizes:     COMRAM   BANK0   BANK1   BANK2   BANK3   BANK4   BANK5   BANK6   BANK7   BANK8   BANK9  BANK10  BANK1
      +1  BANK12  BANK13  BANK14  BANK15  BANK16  BANK17  BANK18  BANK19  BANK20  BANK21  BANK22  BANK23  BANK24  BANK25  BANK2
      +6  BANK27  BANK28  BANK29  BANK30  BANK31
  5746 ;;      Params:         0       0       0       0       0       0       0       0       0       0       0       0       
      +0       0       0       0       0       0       0       0       0       0       0       0       0       0       0       
      +0       0       0       0       0       0
  5747 ;;      Locals:         0       0       0       0       0       0       0       0       0       0       0       0       
      +0       0       0       0       0       0       0       0       0       0       0       0       0       0       0       
      +0       0       0       0       0       0
  5748 ;;      Temps:          0       0       0       0       0       0       0       0       0       0       0       0       
      +0       0       0       0       0       0       0       0       0       0       0       0       0       0       0       
      +0       0       0       0       0       0
  5749 ;;      Totals:         0       0       0       0       0       0       0       0       0       0       0       0       
      +0       0       0       0       0       0       0       0       0       0       0       0       0       0       0       
      +0       0       0       0       0       0
  5750 ;;Total ram usage:        0 bytes
  5751 ;; Hardware stack levels used:    1
  5752 ;; Hardware stack levels required when called:    3
  5753 ;; This function calls:
  5754 ;;		Nothing
  5755 ;; This function is called by:
  5756 ;;		_SPI_transmit
  5757 ;; This function uses a non-reentrant model
  5758 ;;
  5759                           
  5760                           	psect	text24
  5761  003D96                     __ptext24:
  5762                           	callstack 0
  5763  003D96                     _SPI1_Openv2:
  5764                           	callstack 26
  5765  003D96                     
  5766                           ;mcc_generated_files/spi1.c: 83:     SPI1CON0bits.EN = 1;
  5767  003D96  013D               	movlb	61	; () banked
  5768  003D98  8F14               	bsf	20,7,b	;volatile
  5769  003D9A                     
  5770                           ; BSR set to: 61
  5771  003D9A  0012               	return		;funcret
  5772  003D9C                     __end_of_SPI1_Openv2:
  5773                           	callstack 0
  5774                           
  5775 ;; *************** function _SPI1_Close *****************
  5776 ;; Defined at:
  5777 ;;		line 86 in file "mcc_generated_files/spi1.c"
  5778 ;; Parameters:    Size  Location     Type
  5779 ;;		None
  5780 ;; Auto vars:     Size  Location     Type
  5781 ;;		None
  5782 ;; Return value:  Size  Location     Type
  5783 ;;                  1    wreg      void 
  5784 ;; Registers used:
  5785 ;;		None
  5786 ;; Tracked objects:
  5787 ;;		On entry : 0/0
  5788 ;;		On exit  : 0/0
  5789 ;;		Unchanged: 0/0
  5790 ;; Data sizes:     COMRAM   BANK0   BANK1   BANK2   BANK3   BANK4   BANK5   BANK6   BANK7   BANK8   BANK9  BANK10  BANK1
      +1  BANK12  BANK13  BANK14  BANK15  BANK16  BANK17  BANK18  BANK19  BANK20  BANK21  BANK22  BANK23  BANK24  BANK25  BANK2
      +6  BANK27  BANK28  BANK29  BANK30  BANK31
  5791 ;;      Params:         0       0       0       0       0       0       0       0       0       0       0       0       
      +0       0       0       0       0       0       0       0       0       0       0       0       0       0       0       
      +0       0       0       0       0       0
  5792 ;;      Locals:         0       0       0       0       0       0       0       0       0       0       0       0       
      +0       0       0       0       0       0       0       0       0       0       0       0       0       0       0       
      +0       0       0       0       0       0
  5793 ;;      Temps:          0       0       0       0       0       0       0       0       0       0       0       0       
      +0       0       0       0       0       0       0       0       0       0       0       0       0       0       0       
      +0       0       0       0       0       0
  5794 ;;      Totals:         0       0       0       0       0       0       0       0       0       0       0       0       
      +0       0       0       0       0       0       0       0       0       0       0       0       0       0       0       
      +0       0       0       0       0       0
  5795 ;;Total ram usage:        0 bytes
  5796 ;; Hardware stack levels used:    1
  5797 ;; Hardware stack levels required when called:    3
  5798 ;; This function calls:
  5799 ;;		Nothing
  5800 ;; This function is called by:
  5801 ;;		_SPI_transmit
  5802 ;; This function uses a non-reentrant model
  5803 ;;
  5804                           
  5805                           	psect	text25
  5806  003D9C                     __ptext25:
  5807                           	callstack 0
  5808  003D9C                     _SPI1_Close:
  5809                           	callstack 26
  5810  003D9C                     
  5811                           ;mcc_generated_files/spi1.c: 88:     SPI1CON0bits.EN = 0;
  5812  003D9C  013D               	movlb	61	; () banked
  5813  003D9E  9F14               	bcf	20,7,b	;volatile
  5814  003DA0                     
  5815                           ; BSR set to: 61
  5816  003DA0  0012               	return		;funcret
  5817  003DA2                     __end_of_SPI1_Close:
  5818                           	callstack 0
  5819                           
  5820 ;; *************** function _ISR *****************
  5821 ;; Defined at:
  5822 ;;		line 211 in file "main.c"
  5823 ;; Parameters:    Size  Location     Type
  5824 ;;		None
  5825 ;; Auto vars:     Size  Location     Type
  5826 ;;		None
  5827 ;; Return value:  Size  Location     Type
  5828 ;;                  1    wreg      void 
  5829 ;; Registers used:
  5830 ;;		wreg, fsr2l, fsr2h, status,2, status,0, prodl, prodh, cstack
  5831 ;; Tracked objects:
  5832 ;;		On entry : 0/0
  5833 ;;		On exit  : 0/0
  5834 ;;		Unchanged: 0/0
  5835 ;; Data sizes:     COMRAM   BANK0   BANK1   BANK2   BANK3   BANK4   BANK5   BANK6   BANK7   BANK8   BANK9  BANK10  BANK1
      +1  BANK12  BANK13  BANK14  BANK15  BANK16  BANK17  BANK18  BANK19  BANK20  BANK21  BANK22  BANK23  BANK24  BANK25  BANK2
      +6  BANK27  BANK28  BANK29  BANK30  BANK31
  5836 ;;      Params:         0       0       0       0       0       0       0       0       0       0       0       0       
      +0       0       0       0       0       0       0       0       0       0       0       0       0       0       0       
      +0       0       0       0       0       0
  5837 ;;      Locals:         0       0       0       0       0       0       0       0       0       0       0       0       
      +0       0       0       0       0       0       0       0       0       0       0       0       0       0       0       
      +0       0       0       0       0       0
  5838 ;;      Temps:          4       0       0       0       0       0       0       0       0       0       0       0       
      +0       0       0       0       0       0       0       0       0       0       0       0       0       0       0       
      +0       0       0       0       0       0
  5839 ;;      Totals:         4       0       0       0       0       0       0       0       0       0       0       0       
      +0       0       0       0       0       0       0       0       0       0       0       0       0       0       0       
      +0       0       0       0       0       0
  5840 ;;Total ram usage:        4 bytes
  5841 ;; Hardware stack levels used:    1
  5842 ;; Hardware stack levels required when called:    2
  5843 ;; This function calls:
  5844 ;;		_read_n_adc
  5845 ;;		_send_buffer
  5846 ;;		_start_conversion
  5847 ;;		_timer0_reset
  5848 ;; This function is called by:
  5849 ;;		Interrupt level 2
  5850 ;; This function uses a non-reentrant model
  5851 ;;
  5852                           
  5853                           	psect	text26
  5854  0037C0                     __ptext26:
  5855                           	callstack 0
  5856  0037C0                     _ISR:
  5857                           	callstack 24
  5858  0037C0                     
  5859                           ;main.c: 218:     if(PIR3bits.TMR0IF){
  5860  0037C0  0139               	movlb	57	; () banked
  5861  0037C2  AFA3               	btfss	163,7,b	;volatile
  5862  0037C4  EFE6  F01B         	goto	i2u248_41
  5863  0037C8  EFE8  F01B         	goto	i2u248_40
  5864  0037CC                     i2u248_41:
  5865  0037CC  EF0C  F01C         	goto	i2l3125
  5866  0037D0                     i2u248_40:
  5867  0037D0                     
  5868                           ; BSR set to: 57
  5869                           ;main.c: 219:         timer0_reset();
  5870  0037D0  ECB6  F01E         	call	_timer0_reset	;wreg free
  5871  0037D4                     
  5872                           ;main.c: 221:         if(count < k-1){
  5873  0037D4  0EFF               	movlw	255
  5874  0037D6  6E13               	movwf	??_ISR^0,c
  5875  0037D8  0EFF               	movlw	255
  5876  0037DA  6E14               	movwf	(??_ISR+1)^0,c
  5877  0037DC  C03B  F015         	movff	_k,??_ISR+2
  5878  0037E0  C03C  F016         	movff	_k+1,??_ISR+3
  5879  0037E4  5013               	movf	??_ISR^0,w,c
  5880  0037E6  2615               	addwf	(??_ISR+2)^0,f,c
  5881  0037E8  5014               	movf	(??_ISR+1)^0,w,c
  5882  0037EA  2216               	addwfc	(??_ISR+3)^0,f,c
  5883  0037EC  5015               	movf	(??_ISR+2)^0,w,c
  5884  0037EE  5C3D               	subwf	_count^0,w,c
  5885  0037F0  5016               	movf	(??_ISR+3)^0,w,c
  5886  0037F2  583E               	subwfb	(_count+1)^0,w,c
  5887  0037F4  B0D8               	btfsc	status,0,c
  5888  0037F6  EFFF  F01B         	goto	i2u249_41
  5889  0037FA  EF01  F01C         	goto	i2u249_40
  5890  0037FE                     i2u249_41:
  5891  0037FE  EF05  F01C         	goto	i2l3121
  5892  003802                     i2u249_40:
  5893  003802                     
  5894                           ;main.c: 222:             count++;
  5895  003802  4A3D               	infsnz	_count^0,f,c
  5896  003804  2A3E               	incf	(_count+1)^0,f,c
  5897                           
  5898                           ;main.c: 223:         }else{
  5899  003806  EF0C  F01C         	goto	i2l3125
  5900  00380A                     i2l3121:
  5901                           
  5902                           ;main.c: 224:             count = 0;
  5903  00380A  0E00               	movlw	0
  5904  00380C  6E3E               	movwf	(_count+1)^0,c
  5905  00380E  0E00               	movlw	0
  5906  003810  6E3D               	movwf	_count^0,c
  5907  003812                     
  5908                           ;main.c: 226:             start_conversion(0);
  5909  003812  0E00               	movlw	0
  5910  003814  EC99  F01E         	call	_start_conversion
  5911  003818                     i2l3125:
  5912                           
  5913                           ;main.c: 230:     if(PIR3bits.U1TXIF){
  5914  003818  0139               	movlb	57	; () banked
  5915  00381A  A9A3               	btfss	163,4,b	;volatile
  5916  00381C  EF12  F01C         	goto	i2u250_41
  5917  003820  EF14  F01C         	goto	i2u250_40
  5918  003824                     i2u250_41:
  5919  003824  EF16  F01C         	goto	i2l3129
  5920  003828                     i2u250_40:
  5921  003828                     
  5922                           ; BSR set to: 57
  5923                           ;main.c: 231:         send_buffer();
  5924  003828  EC17  F01D         	call	_send_buffer	;wreg free
  5925  00382C                     i2l3129:
  5926                           
  5927                           ;main.c: 234:     if(PIR1bits.ADIF){
  5928  00382C  0139               	movlb	57	; () banked
  5929  00382E  A5A1               	btfss	161,2,b	;volatile
  5930  003830  EF1C  F01C         	goto	i2u251_41
  5931  003834  EF1E  F01C         	goto	i2u251_40
  5932  003838                     i2u251_41:
  5933  003838  EF2D  F01C         	goto	i2l350
  5934  00383C                     i2u251_40:
  5935  00383C                     
  5936                           ; BSR set to: 57
  5937                           ;main.c: 235:         LATDbits.LD1 = 0;
  5938  00383C  92BD               	bcf	189,1,c	;volatile
  5939  00383E                     
  5940                           ; BSR set to: 57
  5941                           ;main.c: 236:         lectura_done = read_n_adc(lecturas, &canal_actual, n_canales);
  5942  00383E  0ED5               	movlw	low _lecturas
  5943  003840  6E07               	movwf	read_n_adc@lecturas^0,c
  5944  003842  0E00               	movlw	high _lecturas
  5945  003844  6E08               	movwf	(read_n_adc@lecturas+1)^0,c
  5946  003846  0E49               	movlw	low _canal_actual
  5947  003848  6E09               	movwf	read_n_adc@canal_actual^0,c
  5948  00384A  0E00               	movlw	high _canal_actual
  5949  00384C  6E0A               	movwf	(read_n_adc@canal_actual+1)^0,c
  5950  00384E  C040  F00B         	movff	_n_canales,read_n_adc@n_canales
  5951  003852  EC87  F01A         	call	_read_n_adc	;wreg free
  5952  003856  0100               	movlb	0	; () banked
  5953  003858  6FC0               	movwf	_lectura_done& (0+255),b
  5954  00385A                     i2l350:
  5955  00385A  0011               	retfie		f
  5956  00385C                     __end_of_ISR:
  5957                           	callstack 0
  5958                           
  5959 ;; *************** function _timer0_reset *****************
  5960 ;; Defined at:
  5961 ;;		line 37 in file "timer0.c"
  5962 ;; Parameters:    Size  Location     Type
  5963 ;;		None
  5964 ;; Auto vars:     Size  Location     Type
  5965 ;;		None
  5966 ;; Return value:  Size  Location     Type
  5967 ;;                  1    wreg      void 
  5968 ;; Registers used:
  5969 ;;		wreg, status,2
  5970 ;; Tracked objects:
  5971 ;;		On entry : 0/0
  5972 ;;		On exit  : 0/0
  5973 ;;		Unchanged: 0/0
  5974 ;; Data sizes:     COMRAM   BANK0   BANK1   BANK2   BANK3   BANK4   BANK5   BANK6   BANK7   BANK8   BANK9  BANK10  BANK1
      +1  BANK12  BANK13  BANK14  BANK15  BANK16  BANK17  BANK18  BANK19  BANK20  BANK21  BANK22  BANK23  BANK24  BANK25  BANK2
      +6  BANK27  BANK28  BANK29  BANK30  BANK31
  5975 ;;      Params:         0       0       0       0       0       0       0       0       0       0       0       0       
      +0       0       0       0       0       0       0       0       0       0       0       0       0       0       0       
      +0       0       0       0       0       0
  5976 ;;      Locals:         0       0       0       0       0       0       0       0       0       0       0       0       
      +0       0       0       0       0       0       0       0       0       0       0       0       0       0       0       
      +0       0       0       0       0       0
  5977 ;;      Temps:          0       0       0       0       0       0       0       0       0       0       0       0       
      +0       0       0       0       0       0       0       0       0       0       0       0       0       0       0       
      +0       0       0       0       0       0
  5978 ;;      Totals:         0       0       0       0       0       0       0       0       0       0       0       0       
      +0       0       0       0       0       0       0       0       0       0       0       0       0       0       0       
      +0       0       0       0       0       0
  5979 ;;Total ram usage:        0 bytes
  5980 ;; Hardware stack levels used:    1
  5981 ;; This function calls:
  5982 ;;		Nothing
  5983 ;; This function is called by:
  5984 ;;		_ISR
  5985 ;; This function uses a non-reentrant model
  5986 ;;
  5987                           
  5988                           	psect	text27
  5989  003D6C                     __ptext27:
  5990                           	callstack 0
  5991  003D6C                     _timer0_reset:
  5992                           	callstack 25
  5993  003D6C                     
  5994                           ;timer0.c: 38:     PIR3bits.TMR0IF = 0;
  5995  003D6C  0139               	movlb	57	; () banked
  5996  003D6E  9FA3               	bcf	163,7,b	;volatile
  5997  003D70                     
  5998                           ; BSR set to: 57
  5999                           ;timer0.c: 40:     TMR0H = init_count>>8;
  6000  003D70  0100               	movlb	0	; () banked
  6001  003D72  51FF               	movf	(_init_count+1)& (0+255),w,b
  6002  003D74  6EB7               	movwf	183,c	;volatile
  6003  003D76                     
  6004                           ; BSR set to: 0
  6005                           ;timer0.c: 41:     TMR0L = init_count;
  6006  003D76  0060  F3FB  FFB6   	movff	_init_count,16310	;volatile
  6007  003D7C                     
  6008                           ; BSR set to: 0
  6009  003D7C  0012               	return		;funcret
  6010  003D7E                     __end_of_timer0_reset:
  6011                           	callstack 0
  6012                           
  6013 ;; *************** function _send_buffer *****************
  6014 ;; Defined at:
  6015 ;;		line 93 in file "uart.c"
  6016 ;; Parameters:    Size  Location     Type
  6017 ;;		None
  6018 ;; Auto vars:     Size  Location     Type
  6019 ;;		None
  6020 ;; Return value:  Size  Location     Type
  6021 ;;                  1    wreg      void 
  6022 ;; Registers used:
  6023 ;;		wreg, fsr2l, fsr2h, status,2, status,0, cstack
  6024 ;; Tracked objects:
  6025 ;;		On entry : 0/0
  6026 ;;		On exit  : 0/0
  6027 ;;		Unchanged: 0/0
  6028 ;; Data sizes:     COMRAM   BANK0   BANK1   BANK2   BANK3   BANK4   BANK5   BANK6   BANK7   BANK8   BANK9  BANK10  BANK1
      +1  BANK12  BANK13  BANK14  BANK15  BANK16  BANK17  BANK18  BANK19  BANK20  BANK21  BANK22  BANK23  BANK24  BANK25  BANK2
      +6  BANK27  BANK28  BANK29  BANK30  BANK31
  6029 ;;      Params:         0       0       0       0       0       0       0       0       0       0       0       0       
      +0       0       0       0       0       0       0       0       0       0       0       0       0       0       0       
      +0       0       0       0       0       0
  6030 ;;      Locals:         0       0       0       0       0       0       0       0       0       0       0       0       
      +0       0       0       0       0       0       0       0       0       0       0       0       0       0       0       
      +0       0       0       0       0       0
  6031 ;;      Temps:          2       0       0       0       0       0       0       0       0       0       0       0       
      +0       0       0       0       0       0       0       0       0       0       0       0       0       0       0       
      +0       0       0       0       0       0
  6032 ;;      Totals:         2       0       0       0       0       0       0       0       0       0       0       0       
      +0       0       0       0       0       0       0       0       0       0       0       0       0       0       0       
      +0       0       0       0       0       0
  6033 ;;Total ram usage:        2 bytes
  6034 ;; Hardware stack levels used:    1
  6035 ;; Hardware stack levels required when called:    1
  6036 ;; This function calls:
  6037 ;;		_uart_tx
  6038 ;; This function is called by:
  6039 ;;		_ISR
  6040 ;; This function uses a non-reentrant model
  6041 ;;
  6042                           
  6043                           	psect	text28
  6044  003A2E                     __ptext28:
  6045                           	callstack 0
  6046  003A2E                     _send_buffer:
  6047                           	callstack 24
  6048  003A2E                     
  6049                           ;uart.c: 95:     if(buffertx_pointer < len_buffertx){
  6050  003A2E  5041               	movf	_len_buffertx^0,w,c
  6051  003A30  5C46               	subwf	_buffertx_pointer^0,w,c
  6052  003A32  0E00               	movlw	0
  6053  003A34  5847               	subwfb	(_buffertx_pointer+1)^0,w,c
  6054  003A36  B0D8               	btfsc	status,0,c
  6055  003A38  EF20  F01D         	goto	i2u243_41
  6056  003A3C  EF22  F01D         	goto	i2u243_40
  6057  003A40                     i2u243_41:
  6058  003A40  EF2D  F01D         	goto	i2l3035
  6059  003A44                     i2u243_40:
  6060  003A44                     
  6061                           ;uart.c: 96:         uart_tx(buffertx[buffertx_pointer++]);
  6062  003A44  0EA7               	movlw	low _buffertx
  6063  003A46  2446               	addwf	_buffertx_pointer^0,w,c
  6064  003A48  6ED9               	movwf	fsr2l,c
  6065  003A4A  0E00               	movlw	high _buffertx
  6066  003A4C  2047               	addwfc	(_buffertx_pointer+1)^0,w,c
  6067  003A4E  6EDA               	movwf	fsr2h,c
  6068  003A50  50DF               	movf	indf2,w,c
  6069  003A52  ECC6  F01E         	call	_uart_tx
  6070  003A56  4A46               	infsnz	_buffertx_pointer^0,f,c
  6071  003A58  2A47               	incf	(_buffertx_pointer+1)^0,f,c
  6072  003A5A                     i2l3035:
  6073                           
  6074                           ;uart.c: 98:     if((buffertx_pointer == len_buffertx) && (U1ERRIRbits.TXMTIF)){
  6075  003A5A  5041               	movf	_len_buffertx^0,w,c
  6076  003A5C  6E02               	movwf	??_send_buffer^0,c
  6077  003A5E  6A03               	clrf	(??_send_buffer+1)^0,c
  6078  003A60  5046               	movf	_buffertx_pointer^0,w,c
  6079  003A62  1802               	xorwf	??_send_buffer^0,w,c
  6080  003A64  E107               	bnz	i2u244_41
  6081  003A66  5047               	movf	(_buffertx_pointer+1)^0,w,c
  6082  003A68  1803               	xorwf	(??_send_buffer+1)^0,w,c
  6083  003A6A  A4D8               	btfss	status,2,c
  6084  003A6C  EF3A  F01D         	goto	i2u244_41
  6085  003A70  EF3C  F01D         	goto	i2u244_40
  6086  003A74                     i2u244_41:
  6087  003A74  EF49  F01D         	goto	i2l527
  6088  003A78                     i2u244_40:
  6089  003A78  013D               	movlb	61	; () banked
  6090  003A7A  AFF9               	btfss	249,7,b	;volatile
  6091  003A7C  EF42  F01D         	goto	i2u245_41
  6092  003A80  EF44  F01D         	goto	i2u245_40
  6093  003A84                     i2u245_41:
  6094  003A84  EF49  F01D         	goto	i2l527
  6095  003A88                     i2u245_40:
  6096  003A88                     
  6097                           ; BSR set to: 61
  6098                           ;uart.c: 99:         U1CON0bits.TXEN = 0;
  6099  003A88  9BF2               	bcf	242,5,b	;volatile
  6100  003A8A                     
  6101                           ; BSR set to: 61
  6102                           ;uart.c: 100:         buffertx_pointer = 0;
  6103  003A8A  0E00               	movlw	0
  6104  003A8C  6E47               	movwf	(_buffertx_pointer+1)^0,c
  6105  003A8E  0E00               	movlw	0
  6106  003A90  6E46               	movwf	_buffertx_pointer^0,c
  6107  003A92                     i2l527:
  6108  003A92  0012               	return		;funcret
  6109  003A94                     __end_of_send_buffer:
  6110                           	callstack 0
  6111                           
  6112 ;; *************** function _uart_tx *****************
  6113 ;; Defined at:
  6114 ;;		line 77 in file "uart.c"
  6115 ;; Parameters:    Size  Location     Type
  6116 ;;  data            1    wreg     unsigned char 
  6117 ;; Auto vars:     Size  Location     Type
  6118 ;;  data            1    0[COMRAM] unsigned char 
  6119 ;; Return value:  Size  Location     Type
  6120 ;;                  1    wreg      void 
  6121 ;; Registers used:
  6122 ;;		wreg
  6123 ;; Tracked objects:
  6124 ;;		On entry : 0/0
  6125 ;;		On exit  : 0/0
  6126 ;;		Unchanged: 0/0
  6127 ;; Data sizes:     COMRAM   BANK0   BANK1   BANK2   BANK3   BANK4   BANK5   BANK6   BANK7   BANK8   BANK9  BANK10  BANK1
      +1  BANK12  BANK13  BANK14  BANK15  BANK16  BANK17  BANK18  BANK19  BANK20  BANK21  BANK22  BANK23  BANK24  BANK25  BANK2
      +6  BANK27  BANK28  BANK29  BANK30  BANK31
  6128 ;;      Params:         0       0       0       0       0       0       0       0       0       0       0       0       
      +0       0       0       0       0       0       0       0       0       0       0       0       0       0       0       
      +0       0       0       0       0       0
  6129 ;;      Locals:         1       0       0       0       0       0       0       0       0       0       0       0       
      +0       0       0       0       0       0       0       0       0       0       0       0       0       0       0       
      +0       0       0       0       0       0
  6130 ;;      Temps:          0       0       0       0       0       0       0       0       0       0       0       0       
      +0       0       0       0       0       0       0       0       0       0       0       0       0       0       0       
      +0       0       0       0       0       0
  6131 ;;      Totals:         1       0       0       0       0       0       0       0       0       0       0       0       
      +0       0       0       0       0       0       0       0       0       0       0       0       0       0       0       
      +0       0       0       0       0       0
  6132 ;;Total ram usage:        1 bytes
  6133 ;; Hardware stack levels used:    1
  6134 ;; This function calls:
  6135 ;;		Nothing
  6136 ;; This function is called by:
  6137 ;;		_send_buffer
  6138 ;; This function uses a non-reentrant model
  6139 ;;
  6140                           
  6141                           	psect	text29
  6142  003D8C                     __ptext29:
  6143                           	callstack 0
  6144  003D8C                     _uart_tx:
  6145                           	callstack 24
  6146                           
  6147                           ;incstack = 0
  6148                           ;uart_tx@data stored from wreg
  6149  003D8C  6E01               	movwf	uart_tx@data^0,c
  6150  003D8E                     
  6151                           ;uart.c: 78:     U1TXB = data;
  6152  003D8E  0060  F007  FDEA   	movff	uart_tx@data,15850	;volatile
  6153  003D94  0012               	return		;funcret
  6154  003D96                     __end_of_uart_tx:
  6155                           	callstack 0
  6156                           
  6157 ;; *************** function _read_n_adc *****************
  6158 ;; Defined at:
  6159 ;;		line 56 in file "adc.c"
  6160 ;; Parameters:    Size  Location     Type
  6161 ;;  lecturas        2    6[COMRAM] PTR unsigned short 
  6162 ;;		 -> lecturas(4), 
  6163 ;;  canal_actual    2    8[COMRAM] PTR unsigned char 
  6164 ;;		 -> canal_actual(1), 
  6165 ;;  n_canales       1   10[COMRAM] unsigned char 
  6166 ;; Auto vars:     Size  Location     Type
  6167 ;;  done            1    0        unsigned char 
  6168 ;; Return value:  Size  Location     Type
  6169 ;;                  1    wreg      unsigned char 
  6170 ;; Registers used:
  6171 ;;		wreg, fsr2l, fsr2h, status,2, status,0, prodl, prodh, cstack
  6172 ;; Tracked objects:
  6173 ;;		On entry : 0/0
  6174 ;;		On exit  : 0/0
  6175 ;;		Unchanged: 0/0
  6176 ;; Data sizes:     COMRAM   BANK0   BANK1   BANK2   BANK3   BANK4   BANK5   BANK6   BANK7   BANK8   BANK9  BANK10  BANK1
      +1  BANK12  BANK13  BANK14  BANK15  BANK16  BANK17  BANK18  BANK19  BANK20  BANK21  BANK22  BANK23  BANK24  BANK25  BANK2
      +6  BANK27  BANK28  BANK29  BANK30  BANK31
  6177 ;;      Params:         5       0       0       0       0       0       0       0       0       0       0       0       
      +0       0       0       0       0       0       0       0       0       0       0       0       0       0       0       
      +0       0       0       0       0       0
  6178 ;;      Locals:         1       0       0       0       0       0       0       0       0       0       0       0       
      +0       0       0       0       0       0       0       0       0       0       0       0       0       0       0       
      +0       0       0       0       0       0
  6179 ;;      Temps:          6       0       0       0       0       0       0       0       0       0       0       0       
      +0       0       0       0       0       0       0       0       0       0       0       0       0       0       0       
      +0       0       0       0       0       0
  6180 ;;      Totals:        12       0       0       0       0       0       0       0       0       0       0       0       
      +0       0       0       0       0       0       0       0       0       0       0       0       0       0       0       
      +0       0       0       0       0       0
  6181 ;;Total ram usage:       12 bytes
  6182 ;; Hardware stack levels used:    1
  6183 ;; Hardware stack levels required when called:    1
  6184 ;; This function calls:
  6185 ;;		_read_adc
  6186 ;;		_start_conversion
  6187 ;; This function is called by:
  6188 ;;		_ISR
  6189 ;; This function uses a non-reentrant model
  6190 ;;
  6191                           
  6192                           	psect	text30
  6193  00350E                     __ptext30:
  6194                           	callstack 0
  6195  00350E                     _read_n_adc:
  6196                           	callstack 24
  6197  00350E                     
  6198                           ;adc.c: 57:     lecturas[*canal_actual] = read_adc();
  6199  00350E  EC54  F01E         	call	_read_adc	;wreg free
  6200  003512  0060  F027  FFD9   	movff	read_n_adc@canal_actual,fsr2l
  6201  003518  0060  F02B  FFDA   	movff	read_n_adc@canal_actual+1,fsr2h
  6202  00351E  50DF               	movf	indf2,w,c
  6203  003520  6E0C               	movwf	??_read_n_adc^0,c
  6204  003522  500C               	movf	??_read_n_adc^0,w,c
  6205  003524  0D02               	mullw	2
  6206  003526  006F FFCC  F00D    	movff	prodl,??_read_n_adc+1
  6207  00352C  006F FFD0  F00E    	movff	prodh,??_read_n_adc+2
  6208  003532  500D               	movf	(??_read_n_adc+1)^0,w,c
  6209  003534  2407               	addwf	read_n_adc@lecturas^0,w,c
  6210  003536  6ED9               	movwf	fsr2l,c
  6211  003538  500E               	movf	(??_read_n_adc+2)^0,w,c
  6212  00353A  2008               	addwfc	(read_n_adc@lecturas+1)^0,w,c
  6213  00353C  6EDA               	movwf	fsr2h,c
  6214  00353E  0060  F007  FFDE   	movff	?_read_adc,postinc2
  6215  003544  0060  F00B  FFDD   	movff	?_read_adc+1,postdec2
  6216  00354A                     
  6217                           ;adc.c: 58:     if(*canal_actual == n_canales-1){
  6218  00354A  0060  F027  FFD9   	movff	read_n_adc@canal_actual,fsr2l
  6219  003550  0060  F02B  FFDA   	movff	read_n_adc@canal_actual+1,fsr2h
  6220  003556  50DF               	movf	indf2,w,c
  6221  003558  6E0C               	movwf	??_read_n_adc^0,c
  6222  00355A  6A0D               	clrf	(??_read_n_adc+1)^0,c
  6223  00355C  0EFF               	movlw	255
  6224  00355E  6E0E               	movwf	(??_read_n_adc+2)^0,c
  6225  003560  0EFF               	movlw	255
  6226  003562  6E0F               	movwf	(??_read_n_adc+3)^0,c
  6227  003564  500B               	movf	read_n_adc@n_canales^0,w,c
  6228  003566  6E10               	movwf	(??_read_n_adc+4)^0,c
  6229  003568  6A11               	clrf	(??_read_n_adc+5)^0,c
  6230  00356A  500E               	movf	(??_read_n_adc+2)^0,w,c
  6231  00356C  2610               	addwf	(??_read_n_adc+4)^0,f,c
  6232  00356E  500F               	movf	(??_read_n_adc+3)^0,w,c
  6233  003570  2211               	addwfc	(??_read_n_adc+5)^0,f,c
  6234  003572  500C               	movf	??_read_n_adc^0,w,c
  6235  003574  1810               	xorwf	(??_read_n_adc+4)^0,w,c
  6236  003576  E107               	bnz	i2u246_41
  6237  003578  500D               	movf	(??_read_n_adc+1)^0,w,c
  6238  00357A  1811               	xorwf	(??_read_n_adc+5)^0,w,c
  6239  00357C  A4D8               	btfss	status,2,c
  6240  00357E  EFC3  F01A         	goto	i2u246_41
  6241  003582  EFC5  F01A         	goto	i2u246_40
  6242  003586                     i2u246_41:
  6243  003586  EFD0  F01A         	goto	i2l3057
  6244  00358A                     i2u246_40:
  6245  00358A                     
  6246                           ;adc.c: 59:         *canal_actual = 0;
  6247  00358A  0060  F027  FFD9   	movff	read_n_adc@canal_actual,fsr2l
  6248  003590  0060  F02B  FFDA   	movff	read_n_adc@canal_actual+1,fsr2h
  6249  003596  0E00               	movlw	0
  6250  003598  6EDF               	movwf	indf2,c
  6251  00359A                     
  6252                           ;adc.c: 61:         return done;
  6253  00359A  0E01               	movlw	1
  6254  00359C  EFE1  F01A         	goto	i2l434
  6255  0035A0                     i2l3057:
  6256                           
  6257                           ;adc.c: 63:         *canal_actual += 1;
  6258  0035A0  0060  F027  FFD9   	movff	read_n_adc@canal_actual,fsr2l
  6259  0035A6  0060  F02B  FFDA   	movff	read_n_adc@canal_actual+1,fsr2h
  6260  0035AC  2ADF               	incf	indf2,f,c
  6261  0035AE                     
  6262                           ;adc.c: 64:         start_conversion(*canal_actual);
  6263  0035AE  0060  F027  FFD9   	movff	read_n_adc@canal_actual,fsr2l
  6264  0035B4  0060  F02B  FFDA   	movff	read_n_adc@canal_actual+1,fsr2h
  6265  0035BA  50DF               	movf	indf2,w,c
  6266  0035BC  EC99  F01E         	call	_start_conversion
  6267  0035C0                     
  6268                           ;adc.c: 65:         return 0;
  6269  0035C0  0E00               	movlw	0
  6270  0035C2                     i2l434:
  6271  0035C2  0012               	return		;funcret
  6272  0035C4                     __end_of_read_n_adc:
  6273                           	callstack 0
  6274                           
  6275 ;; *************** function _start_conversion *****************
  6276 ;; Defined at:
  6277 ;;		line 39 in file "adc.c"
  6278 ;; Parameters:    Size  Location     Type
  6279 ;;  channel         1    wreg     unsigned char 
  6280 ;; Auto vars:     Size  Location     Type
  6281 ;;  channel         1    0[COMRAM] unsigned char 
  6282 ;; Return value:  Size  Location     Type
  6283 ;;                  1    wreg      void 
  6284 ;; Registers used:
  6285 ;;		wreg, status,2, status,0
  6286 ;; Tracked objects:
  6287 ;;		On entry : 0/0
  6288 ;;		On exit  : 0/0
  6289 ;;		Unchanged: 0/0
  6290 ;; Data sizes:     COMRAM   BANK0   BANK1   BANK2   BANK3   BANK4   BANK5   BANK6   BANK7   BANK8   BANK9  BANK10  BANK1
      +1  BANK12  BANK13  BANK14  BANK15  BANK16  BANK17  BANK18  BANK19  BANK20  BANK21  BANK22  BANK23  BANK24  BANK25  BANK2
      +6  BANK27  BANK28  BANK29  BANK30  BANK31
  6291 ;;      Params:         0       0       0       0       0       0       0       0       0       0       0       0       
      +0       0       0       0       0       0       0       0       0       0       0       0       0       0       0       
      +0       0       0       0       0       0
  6292 ;;      Locals:         1       0       0       0       0       0       0       0       0       0       0       0       
      +0       0       0       0       0       0       0       0       0       0       0       0       0       0       0       
      +0       0       0       0       0       0
  6293 ;;      Temps:          0       0       0       0       0       0       0       0       0       0       0       0       
      +0       0       0       0       0       0       0       0       0       0       0       0       0       0       0       
      +0       0       0       0       0       0
  6294 ;;      Totals:         1       0       0       0       0       0       0       0       0       0       0       0       
      +0       0       0       0       0       0       0       0       0       0       0       0       0       0       0       
      +0       0       0       0       0       0
  6295 ;;Total ram usage:        1 bytes
  6296 ;; Hardware stack levels used:    1
  6297 ;; This function calls:
  6298 ;;		Nothing
  6299 ;; This function is called by:
  6300 ;;		_ISR
  6301 ;;		_read_n_adc
  6302 ;; This function uses a non-reentrant model
  6303 ;;
  6304                           
  6305                           	psect	text31
  6306  003D32                     __ptext31:
  6307                           	callstack 0
  6308  003D32                     _start_conversion:
  6309                           	callstack 25
  6310                           
  6311                           ;incstack = 0
  6312                           ;start_conversion@channel stored from wreg
  6313  003D32  6E01               	movwf	start_conversion@channel^0,c
  6314  003D34                     
  6315                           ;adc.c: 40:     ADPCHbits.PCH = channel;
  6316  003D34  013E               	movlb	62	; () banked
  6317  003D36  51F1               	movf	241,w,b	;volatile
  6318  003D38  1801               	xorwf	start_conversion@channel^0,w,c
  6319  003D3A  0BC0               	andlw	-64
  6320  003D3C  1801               	xorwf	start_conversion@channel^0,w,c
  6321  003D3E  6FF1               	movwf	241,b	;volatile
  6322  003D40                     
  6323                           ; BSR set to: 62
  6324                           ;adc.c: 41:     ADCON0bits.GO = 1;
  6325  003D40  81F8               	bsf	248,0,b	;volatile
  6326  003D42                     
  6327                           ; BSR set to: 62
  6328                           ;adc.c: 42:     LATDbits.LD1 = 1;
  6329  003D42  82BD               	bsf	189,1,c	;volatile
  6330  003D44                     
  6331                           ; BSR set to: 62
  6332                           ;adc.c: 43:     LATDbits.LD1 = 1;
  6333  003D44  82BD               	bsf	189,1,c	;volatile
  6334  003D46                     
  6335                           ; BSR set to: 62
  6336  003D46  0012               	return		;funcret
  6337  003D48                     __end_of_start_conversion:
  6338                           	callstack 0
  6339                           
  6340 ;; *************** function _read_adc *****************
  6341 ;; Defined at:
  6342 ;;		line 50 in file "adc.c"
  6343 ;; Parameters:    Size  Location     Type
  6344 ;;		None
  6345 ;; Auto vars:     Size  Location     Type
  6346 ;;  result          2    4[COMRAM] unsigned short 
  6347 ;; Return value:  Size  Location     Type
  6348 ;;                  2    0[COMRAM] unsigned short 
  6349 ;; Registers used:
  6350 ;;		wreg, status,2, status,0
  6351 ;; Tracked objects:
  6352 ;;		On entry : 0/0
  6353 ;;		On exit  : 0/0
  6354 ;;		Unchanged: 0/0
  6355 ;; Data sizes:     COMRAM   BANK0   BANK1   BANK2   BANK3   BANK4   BANK5   BANK6   BANK7   BANK8   BANK9  BANK10  BANK1
      +1  BANK12  BANK13  BANK14  BANK15  BANK16  BANK17  BANK18  BANK19  BANK20  BANK21  BANK22  BANK23  BANK24  BANK25  BANK2
      +6  BANK27  BANK28  BANK29  BANK30  BANK31
  6356 ;;      Params:         2       0       0       0       0       0       0       0       0       0       0       0       
      +0       0       0       0       0       0       0       0       0       0       0       0       0       0       0       
      +0       0       0       0       0       0
  6357 ;;      Locals:         2       0       0       0       0       0       0       0       0       0       0       0       
      +0       0       0       0       0       0       0       0       0       0       0       0       0       0       0       
      +0       0       0       0       0       0
  6358 ;;      Temps:          2       0       0       0       0       0       0       0       0       0       0       0       
      +0       0       0       0       0       0       0       0       0       0       0       0       0       0       0       
      +0       0       0       0       0       0
  6359 ;;      Totals:         6       0       0       0       0       0       0       0       0       0       0       0       
      +0       0       0       0       0       0       0       0       0       0       0       0       0       0       0       
      +0       0       0       0       0       0
  6360 ;;Total ram usage:        6 bytes
  6361 ;; Hardware stack levels used:    1
  6362 ;; This function calls:
  6363 ;;		Nothing
  6364 ;; This function is called by:
  6365 ;;		_read_n_adc
  6366 ;; This function uses a non-reentrant model
  6367 ;;
  6368                           
  6369                           	psect	text32
  6370  003CA8                     __ptext32:
  6371                           	callstack 0
  6372  003CA8                     _read_adc:
  6373                           	callstack 24
  6374  003CA8                     
  6375                           ;adc.c: 51:     uint16_t result = (uint16_t)((ADRESH<<8) | (ADRESL));
  6376  003CA8  013E               	movlb	62	; () banked
  6377  003CAA  51EF               	movf	239,w,b	;volatile
  6378  003CAC  006F FBC0  F003    	movff	16112,??_read_adc	;volatile
  6379  003CB2  6A04               	clrf	(??_read_adc+1)^0,c
  6380  003CB4  C003  F004         	movff	??_read_adc,??_read_adc+1
  6381  003CB8  6A03               	clrf	??_read_adc^0,c
  6382  003CBA  1003               	iorwf	??_read_adc^0,w,c
  6383  003CBC  6E05               	movwf	read_adc@result^0,c
  6384  003CBE  5004               	movf	(??_read_adc+1)^0,w,c
  6385  003CC0  6E06               	movwf	(read_adc@result+1)^0,c
  6386  003CC2                     
  6387                           ; BSR set to: 62
  6388                           ;adc.c: 52:     PIR1bits.ADIF = 0;
  6389  003CC2  0139               	movlb	57	; () banked
  6390  003CC4  95A1               	bcf	161,2,b	;volatile
  6391  003CC6                     
  6392                           ; BSR set to: 57
  6393                           ;adc.c: 53:     return result;
  6394  003CC6  C005  F001         	movff	read_adc@result,?_read_adc
  6395  003CCA  C006  F002         	movff	read_adc@result+1,?_read_adc+1
  6396  003CCE                     
  6397                           ; BSR set to: 57
  6398  003CCE  0012               	return		;funcret
  6399  003CD0                     __end_of_read_adc:
  6400                           	callstack 0
  6401                           
  6402                           ;
  6403                           ; Interrupt Vector Table @ 0x8
  6404                           ;
  6405                           
  6406                           	psect	ivt0x8
  6407  000008                     __pivt0x8:
  6408                           	callstack 0
  6409  000008                     ivt0x8_base:
  6410                           	callstack 0
  6411                           
  6412                           ; high-priority vector
  6413  000008  EFE0  F01B         	goto	_ISR
  6414  000018                     	org	16
  6415                           
  6416                           ; low-priority vector
  6417  000018  00FF               	reset	
  6418                           
  6419                           	psect	rparam
  6420  0000                     
  6421                           	psect	idloc
  6422                           
  6423                           ;Config register IDLOC0 @ 0x200000
  6424                           ;	unspecified, using default values
  6425  200000                     	org	2097152
  6426  200000  0FFF               	dw	4095
  6427                           
  6428                           ;Config register IDLOC1 @ 0x200002
  6429                           ;	unspecified, using default values
  6430  200002                     	org	2097154
  6431  200002  0FFF               	dw	4095
  6432                           
  6433                           ;Config register IDLOC2 @ 0x200004
  6434                           ;	unspecified, using default values
  6435  200004                     	org	2097156
  6436  200004  0FFF               	dw	4095
  6437                           
  6438                           ;Config register IDLOC3 @ 0x200006
  6439                           ;	unspecified, using default values
  6440  200006                     	org	2097158
  6441  200006  0FFF               	dw	4095
  6442                           
  6443                           ;Config register IDLOC4 @ 0x200008
  6444                           ;	unspecified, using default values
  6445  200008                     	org	2097160
  6446  200008  0FFF               	dw	4095
  6447                           
  6448                           ;Config register IDLOC5 @ 0x20000A
  6449                           ;	unspecified, using default values
  6450  20000A                     	org	2097162
  6451  20000A  0FFF               	dw	4095
  6452                           
  6453                           ;Config register IDLOC6 @ 0x20000C
  6454                           ;	unspecified, using default values
  6455  20000C                     	org	2097164
  6456  20000C  0FFF               	dw	4095
  6457                           
  6458                           ;Config register IDLOC7 @ 0x20000E
  6459                           ;	unspecified, using default values
  6460  20000E                     	org	2097166
  6461  20000E  0FFF               	dw	4095
  6462                           
  6463                           	psect	config
  6464                           
  6465                           ;Config register CONFIG1L @ 0x300000
  6466                           ;	External Oscillator Selection
  6467                           ;	FEXTOSC = HS, HS (crystal oscillator) above 8 MHz; PFM set to high power
  6468                           ;	Reset Oscillator Selection
  6469                           ;	RSTOSC = EXTOSC_4PLL, EXTOSC with 4x PLL, with EXTOSC operating per FEXTOSC bits
  6470  300000                     	org	3145728
  6471  300000  AA                 	db	170
  6472                           
  6473                           ;Config register CONFIG1H @ 0x300001
  6474                           ;	Clock out Enable bit
  6475                           ;	CLKOUTEN = OFF, CLKOUT function is disabled
  6476                           ;	PRLOCKED One-Way Set Enable bit
  6477                           ;	PR1WAY = ON, PRLOCK bit can be cleared and set only once
  6478                           ;	Clock Switch Enable bit
  6479                           ;	CSWEN = ON, Writing to NOSC and NDIV is allowed
  6480                           ;	Fail-Safe Clock Monitor Enable bit
  6481                           ;	FCMEN = ON, Fail-Safe Clock Monitor enabled
  6482  300001                     	org	3145729
  6483  300001  FF                 	db	255
  6484                           
  6485                           ;Config register CONFIG2L @ 0x300002
  6486                           ;	MCLR Enable bit
  6487                           ;	MCLRE = EXTMCLR, If LVP = 0, MCLR pin is MCLR; If LVP = 1, RE3 pin function is MCLR
  6488                           ;	Power-up timer selection bits
  6489                           ;	PWRTS = PWRT_OFF, PWRT is disabled
  6490                           ;	Multi-vector enable bit
  6491                           ;	MVECEN = OFF, Interrupt contoller does not use vector table to prioritze interrupts
  6492                           ;	IVTLOCK bit One-way set enable bit
  6493                           ;	IVT1WAY = ON, IVTLOCK bit can be cleared and set only once
  6494                           ;	Low Power BOR Enable bit
  6495                           ;	LPBOREN = OFF, ULPBOR disabled
  6496                           ;	Brown-out Reset Enable bits
  6497                           ;	BOREN = SBORDIS, Brown-out Reset enabled , SBOREN bit is ignored
  6498  300002                     	org	3145730
  6499  300002  F7                 	db	247
  6500                           
  6501                           ;Config register CONFIG2H @ 0x300003
  6502                           ;	Brown-out Reset Voltage Selection bits
  6503                           ;	BORV = VBOR_2P45, Brown-out Reset Voltage (VBOR) set to 2.45V
  6504                           ;	ZCD Disable bit
  6505                           ;	ZCD = OFF, ZCD disabled. ZCD can be enabled by setting the ZCDSEN bit of ZCDCON
  6506                           ;	PPSLOCK bit One-Way Set Enable bit
  6507                           ;	PPS1WAY = ON, PPSLOCK bit can be cleared and set only once; PPS registers remain locke
      +                          d after one clear/set cycle
  6508                           ;	Stack Full/Underflow Reset Enable bit
  6509                           ;	STVREN = ON, Stack full/underflow will cause Reset
  6510                           ;	Debugger Enable bit
  6511                           ;	DEBUG = OFF, Background debugger disabled
  6512                           ;	Extended Instruction Set Enable bit
  6513                           ;	XINST = OFF, Extended Instruction Set and Indexed Addressing Mode disabled
  6514  300003                     	org	3145731
  6515  300003  FF                 	db	255
  6516                           
  6517                           ;Config register CONFIG3L @ 0x300004
  6518                           ;	WDT Period selection bits
  6519                           ;	WDTCPS = WDTCPS_31, Divider ratio 1:65536; software control of WDTPS
  6520                           ;	WDT operating mode
  6521                           ;	WDTE = OFF, WDT Disabled; SWDTEN is ignored
  6522  300004                     	org	3145732
  6523  300004  9F                 	db	159
  6524                           
  6525                           ;Config register CONFIG3H @ 0x300005
  6526                           ;	WDT Window Select bits
  6527                           ;	WDTCWS = WDTCWS_7, window always open (100%); software control; keyed access not requi
      +                          red
  6528                           ;	WDT input clock selector
  6529                           ;	WDTCCS = SC, Software Control
  6530  300005                     	org	3145733
  6531  300005  FF                 	db	255
  6532                           
  6533                           ;Config register CONFIG4L @ 0x300006
  6534                           ;	Boot Block Size selection bits
  6535                           ;	BBSIZE = BBSIZE_512, Boot Block size is 512 words
  6536                           ;	Boot Block enable bit
  6537                           ;	BBEN = OFF, Boot block disabled
  6538                           ;	Storage Area Flash enable bit
  6539                           ;	SAFEN = OFF, SAF disabled
  6540                           ;	Application Block write protection bit
  6541                           ;	WRTAPP = OFF, Application Block not write protected
  6542  300006                     	org	3145734
  6543  300006  FF                 	db	255
  6544                           
  6545                           ;Config register CONFIG4H @ 0x300007
  6546                           ;	Configuration Register Write Protection bit
  6547                           ;	WRTB = OFF, Configuration registers (300000-30000Bh) not write-protected
  6548                           ;	Boot Block Write Protection bit
  6549                           ;	WRTC = OFF, Boot Block (000000-0007FFh) not write-protected
  6550                           ;	Data EEPROM Write Protection bit
  6551                           ;	WRTD = OFF, Data EEPROM not write-protected
  6552                           ;	SAF Write protection bit
  6553                           ;	WRTSAF = OFF, SAF not Write Protected
  6554                           ;	Low Voltage Programming Enable bit
  6555                           ;	LVP = ON, Low voltage programming enabled. MCLR/VPP pin function is MCLR. MCLRE config
      +                          uration bit is ignored
  6556  300007                     	org	3145735
  6557  300007  FF                 	db	255
  6558                           
  6559                           ;Config register CONFIG5L @ 0x300008
  6560                           ;	PFM and Data EEPROM Code Protection bit
  6561                           ;	CP = OFF, PFM and Data EEPROM code protection disabled
  6562  300008                     	org	3145736
  6563  300008  FF                 	db	255
  6564                           
  6565                           ;Config register CONFIG5H @ 0x300009
  6566                           ;	unspecified, using default values
  6567  300009                     	org	3145737
  6568  300009  FF                 	db	255
  6569                           tosu	equ	0x3FFF
  6570                           tosh	equ	0x3FFE
  6571                           tosl	equ	0x3FFD
  6572                           stkptr	equ	0x3FFC
  6573                           pclatu	equ	0x3FFB
  6574                           pclath	equ	0x3FFA
  6575                           pcl	equ	0x3FF9
  6576                           tblptru	equ	0x3FF8
  6577                           tblptrh	equ	0x3FF7
  6578                           tblptrl	equ	0x3FF6
  6579                           tablat	equ	0x3FF5
  6580                           prodh	equ	0x3FF4
  6581                           prodl	equ	0x3FF3
  6582                           indf0	equ	0x3FEF
  6583                           postinc0	equ	0x3FEE
  6584                           postdec0	equ	0x3FED
  6585                           preinc0	equ	0x3FEC
  6586                           plusw0	equ	0x3FEB
  6587                           fsr0h	equ	0x3FEA
  6588                           fsr0l	equ	0x3FE9
  6589                           wreg	equ	0x3FE8
  6590                           indf1	equ	0x3FE7
  6591                           postinc1	equ	0x3FE6
  6592                           postdec1	equ	0x3FE5
  6593                           preinc1	equ	0x3FE4
  6594                           plusw1	equ	0x3FE3
  6595                           fsr1h	equ	0x3FE2
  6596                           fsr1l	equ	0x3FE1
  6597                           bsr	equ	0x3FE0
  6598                           indf2	equ	0x3FDF
  6599                           postinc2	equ	0x3FDE
  6600                           postdec2	equ	0x3FDD
  6601                           preinc2	equ	0x3FDC
  6602                           plusw2	equ	0x3FDB
  6603                           fsr2h	equ	0x3FDA
  6604                           fsr2l	equ	0x3FD9
  6605                           status	equ	0x3FD8

Data Sizes:
    Strings     0
    Constant    5
    Data        350
    BSS         154
    Persistent  6
    Stack       0

Auto Spaces:
    Space          Size  Autos    Used
    COMRAM           95     52      73
    BANK0           160     33     160
    BANK1           256     21     249
    BANK2           256      0     134
    BANK3           256      0       0
    BANK4           256      0       0
    BANK5           256      0       0
    BANK6           256      0       0
    BANK7           256      0       0
    BANK8           256      0       0
    BANK9           256      0       0
    BANK10          256      0       0
    BANK11          256      0       0
    BANK12          256      0       0
    BANK13          256      0       0
    BANK14          256      0       0
    BANK15          256      0       0
    BANK16          256      0       0
    BANK17          256      0       0
    BANK18          256      0       0
    BANK19          256      0       0
    BANK20          256      0       0
    BANK21          256      0       0
    BANK22          256      0       0
    BANK23          256      0       0
    BANK24          256      0       0
    BANK25          256      0       0
    BANK26          256      0       0
    BANK27          256      0       0
    BANK28          256      0       0
    BANK29          256      0       0
    BANK30          256      0       0
    BANK31          256      0       0

Pointer List with Targets:

    filtrar_fir_apuntadores@coeficientes	PTR short  size(2) Largest target is 62
		 -> coef4(BANK2[62]), 

    filtrar_fir_apuntadores@filtro.pointer_x	PTR unsigned short  size(2) Largest target is 36
		 -> x1(BANK1[36]), 

    filtrar_fir_apuntadores@filtro.pointer_coef	PTR short  size(2) Largest target is 62
		 -> coef4(BANK2[62]), 

    filtrar_fir_apuntadores@filtro	PTR struct . size(2) Largest target is 10
		 -> filtro_fir_1(BANK0[8]), 

    filtrar_fir_apuntadores@x	PTR unsigned short  size(2) Largest target is 36
		 -> x1(BANK1[36]), 

    filtrar_fir_indices@filtro.pointer_x	PTR unsigned short  size(2) Largest target is 36
		 -> x1(BANK1[36]), 

    filtrar_fir_indices@filtro.pointer_coef	PTR short  size(2) Largest target is 62
		 -> coef4(BANK2[62]), 

    inicializar_filtro_fir@filtro.pointer_x	PTR unsigned short  size(2) Largest target is 36
		 -> x1(BANK1[36]), 

    inicializar_filtro_fir@filtro.pointer_coef	PTR short  size(2) Largest target is 62
		 -> coef4(BANK2[62]), 

    inicializar_filtro_fir@filtro	PTR struct . size(2) Largest target is 10
		 -> filtro_fir_2(BANK0[8]), filtro_fir_1(BANK0[8]), 

    send_array@array	PTR unsigned char  size(2) Largest target is 9
		 -> lecturas_ascii(BANK0[9]), 

    bcd_2_hexascii@digits_ascii	PTR unsigned char  size(2) Largest target is 9
		 -> lecturas_ascii(BANK0[9]), 

    read_n_adc@canal_actual	PTR unsigned char  size(2) Largest target is 1
		 -> canal_actual(COMRAM[1]), 

    read_n_adc@lecturas	PTR unsigned short  size(2) Largest target is 4
		 -> lecturas(BANK0[4]), 

    multiplo@Ts	PTR float  size(2) Largest target is 4
		 -> Ts(BANK0[4]), 

    multiplo@des_Ts	PTR float  size(2) Largest target is 4
		 -> des_Ts(BANK0[4]), 

    filtro_fir_2.pointer_x	PTR unsigned short  size(2) Largest target is 36
		 -> x1(BANK1[36]), 

    filtro_fir_2.pointer_coef	PTR short  size(2) Largest target is 62
		 -> coef4(BANK2[62]), 

    S311$pointer_x	PTR unsigned short  size(2) Largest target is 36
		 -> x1(BANK1[36]), 

    filtro_fir_1.pointer_x	PTR unsigned short  size(2) Largest target is 36
		 -> x1(BANK1[36]), 

    S311$pointer_coef	PTR short  size(2) Largest target is 62
		 -> coef4(BANK2[62]), 

    filtro_fir_1.pointer_coef	PTR short  size(2) Largest target is 62
		 -> coef4(BANK2[62]), 

    SPI_transmit@lecturas	PTR unsigned short  size(2) Largest target is 4
		 -> lecturas_filtradas(BANK0[4]), 


Critical Paths under _main in COMRAM

    _uart_config->___fladd
    ___flsub->___fladd
    ___fladd->___fldiv
    ___fltol->___fladd
    ___fldiv->___xxtofl
    _filtrar_fir_apuntadores->___lmul

Critical Paths under _ISR in COMRAM

    _ISR->_read_n_adc
    _send_buffer->_uart_tx
    _read_n_adc->_read_adc

Critical Paths under _main in BANK0

    _initial_count->___flsub
    ___flsub->___fladd
    ___fladd->___fldiv
    ___fltol->___flsub

Critical Paths under _ISR in BANK0

    None.

Critical Paths under _main in BANK1

    _main->_uart_config
    _uart_config->___fltol
    _timer0_config->_initial_count
    _initial_count->___fltol
    _multiplo->___fltol

Critical Paths under _ISR in BANK1

    None.

Critical Paths under _main in BANK2

    None.

Critical Paths under _ISR in BANK2

    None.

Critical Paths under _main in BANK3

    None.

Critical Paths under _ISR in BANK3

    None.

Critical Paths under _main in BANK4

    None.

Critical Paths under _ISR in BANK4

    None.

Critical Paths under _main in BANK5

    None.

Critical Paths under _ISR in BANK5

    None.

Critical Paths under _main in BANK6

    None.

Critical Paths under _ISR in BANK6

    None.

Critical Paths under _main in BANK7

    None.

Critical Paths under _ISR in BANK7

    None.

Critical Paths under _main in BANK8

    None.

Critical Paths under _ISR in BANK8

    None.

Critical Paths under _main in BANK9

    None.

Critical Paths under _ISR in BANK9

    None.

Critical Paths under _main in BANK10

    None.

Critical Paths under _ISR in BANK10

    None.

Critical Paths under _main in BANK11

    None.

Critical Paths under _ISR in BANK11

    None.

Critical Paths under _main in BANK12

    None.

Critical Paths under _ISR in BANK12

    None.

Critical Paths under _main in BANK13

    None.

Critical Paths under _ISR in BANK13

    None.

Critical Paths under _main in BANK14

    None.

Critical Paths under _ISR in BANK14

    None.

Critical Paths under _main in BANK15

    None.

Critical Paths under _ISR in BANK15

    None.

Critical Paths under _main in BANK16

    None.

Critical Paths under _ISR in BANK16

    None.

Critical Paths under _main in BANK17

    None.

Critical Paths under _ISR in BANK17

    None.

Critical Paths under _main in BANK18

    None.

Critical Paths under _ISR in BANK18

    None.

Critical Paths under _main in BANK19

    None.

Critical Paths under _ISR in BANK19

    None.

Critical Paths under _main in BANK20

    None.

Critical Paths under _ISR in BANK20

    None.

Critical Paths under _main in BANK21

    None.

Critical Paths under _ISR in BANK21

    None.

Critical Paths under _main in BANK22

    None.

Critical Paths under _ISR in BANK22

    None.

Critical Paths under _main in BANK23

    None.

Critical Paths under _ISR in BANK23

    None.

Critical Paths under _main in BANK24

    None.

Critical Paths under _ISR in BANK24

    None.

Critical Paths under _main in BANK25

    None.

Critical Paths under _ISR in BANK25

    None.

Critical Paths under _main in BANK26

    None.

Critical Paths under _ISR in BANK26

    None.

Critical Paths under _main in BANK27

    None.

Critical Paths under _ISR in BANK27

    None.

Critical Paths under _main in BANK28

    None.

Critical Paths under _ISR in BANK28

    None.

Critical Paths under _main in BANK29

    None.

Critical Paths under _ISR in BANK29

    None.

Critical Paths under _main in BANK30

    None.

Critical Paths under _ISR in BANK30

    None.

Critical Paths under _main in BANK31

    None.

Critical Paths under _ISR in BANK31

    None.

Call Graph Tables:

 ---------------------------------------------------------------------------------
 (Depth) Function   	        Calls       Base Space   Used Autos Params    Refs
 ---------------------------------------------------------------------------------
 (0) _main                                                 0     0      0   23000
                    _SPI1_Initialize
                       _SPI_transmit
                  _SYSTEM_Initialize
                         _adc_config
                     _bcd_2_hexascii
            _filtrar_fir_apuntadores
             _inicializar_filtro_fir
                           _multiplo
                         _send_array
                      _timer0_config
                        _uart_config
                 _voltage_ref_config
 ---------------------------------------------------------------------------------
 (1) _voltage_ref_config                                   0     0      0       0
 ---------------------------------------------------------------------------------
 (1) _uart_config                                         11     6      5    8022
                                             10 BANK1     11     6      5
                            ___fladd
                            ___fldiv
                            ___fltol
                           ___xxtofl
 ---------------------------------------------------------------------------------
 (2) ___xxtofl                                            14    10      4     822
                                             22 COMRAM    14    10      4
 ---------------------------------------------------------------------------------
 (1) _timer0_config                                        0     0      0    8415
                      _initial_count
 ---------------------------------------------------------------------------------
 (2) _initial_count                                        4     0      4    8415
                                             10 BANK1      4     0      4
                            ___flmul
                            ___flsub
                            ___fltol
 ---------------------------------------------------------------------------------
 (3) ___flsub                                              8     0      8    4547
                                             25 BANK0      8     0      8
                            ___fladd
                            ___flmul (ARG)
 ---------------------------------------------------------------------------------
 (2) ___fladd                                             16     8      8    3802
                                             48 COMRAM     4     4      0
                                             13 BANK0     12     4      8
                            ___fldiv (ARG)
                           ___xxtofl (ARG)
 ---------------------------------------------------------------------------------
 (3) ___flmul                                             25    17      8    2960
                                             22 COMRAM    25    17      8
 ---------------------------------------------------------------------------------
 (1) _send_array                                           7     5      2     166
                                             22 COMRAM     7     5      2
 ---------------------------------------------------------------------------------
 (1) _multiplo                                             4     0      4    3364
                                             10 BANK1      4     0      4
                            ___fldiv
                            ___fltol
 ---------------------------------------------------------------------------------
 (2) ___fltol                                             10     6      4     787
                                              0 BANK1     10     6      4
                            ___fladd (ARG)
                            ___fldiv (ARG)
                            ___flmul (ARG)
                            ___flsub (ARG)
                           ___xxtofl (ARG)
 ---------------------------------------------------------------------------------
 (2) ___fldiv                                             25    17      8    2335
                                             36 COMRAM    12     4      8
                                              0 BANK0     13    13      0
                           ___xxtofl (ARG)
 ---------------------------------------------------------------------------------
 (1) _inicializar_filtro_fir                               2     0      2     196
                                             22 COMRAM     2     0      2
 ---------------------------------------------------------------------------------
 (1) _filtrar_fir_apuntadores                             20    10     10    1906
                                             34 COMRAM    16     6     10
                                              0 BANK0      4     4      0
                             ___lmul
 ---------------------------------------------------------------------------------
 (2) ___lmul                                              12     4      8     576
                                             22 COMRAM    12     4      8
 ---------------------------------------------------------------------------------
 (1) _bcd_2_hexascii                                      10     5      5     745
                                             22 COMRAM    10     5      5
 ---------------------------------------------------------------------------------
 (1) _adc_config                                           1     1      0      22
                                             22 COMRAM     1     1      0
 ---------------------------------------------------------------------------------
 (1) _SYSTEM_Initialize                                    0     0      0       0
              _OSCILLATOR_Initialize
             _PIN_MANAGER_Initialize
                     _PMD_Initialize
                    _SPI1_Initialize
 ---------------------------------------------------------------------------------
 (2) _SPI1_Initialize                                      0     0      0       0
 ---------------------------------------------------------------------------------
 (2) _PMD_Initialize                                       0     0      0       0
 ---------------------------------------------------------------------------------
 (2) _PIN_MANAGER_Initialize                               0     0      0       0
 ---------------------------------------------------------------------------------
 (2) _OSCILLATOR_Initialize                                0     0      0       0
 ---------------------------------------------------------------------------------
 (1) _SPI_transmit                                         4     2      2     164
                                             22 COMRAM     4     2      2
                         _SPI1_Close
                        _SPI1_Openv2
 ---------------------------------------------------------------------------------
 (2) _SPI1_Openv2                                          0     0      0       0
 ---------------------------------------------------------------------------------
 (2) _SPI1_Close                                           0     0      0       0
 ---------------------------------------------------------------------------------
 Estimated maximum stack depth 3
 ---------------------------------------------------------------------------------
 (Depth) Function   	        Calls       Base Space   Used Autos Params    Refs
 ---------------------------------------------------------------------------------
 (5) _ISR                                                  4     4      0     494
                                             18 COMRAM     4     4      0
                         _read_n_adc
                        _send_buffer
                   _start_conversion
                       _timer0_reset
 ---------------------------------------------------------------------------------
 (6) _timer0_reset                                         0     0      0       0
 ---------------------------------------------------------------------------------
 (6) _send_buffer                                          2     2      0      22
                                              1 COMRAM     2     2      0
                            _uart_tx
 ---------------------------------------------------------------------------------
 (7) _uart_tx                                              1     1      0      22
                                              0 COMRAM     1     1      0
 ---------------------------------------------------------------------------------
 (6) _read_n_adc                                          12     7      5     450
                                              6 COMRAM    12     7      5
                           _read_adc
                   _start_conversion
 ---------------------------------------------------------------------------------
 (6) _start_conversion                                     1     1      0      22
                                              0 COMRAM     1     1      0
 ---------------------------------------------------------------------------------
 (7) _read_adc                                             6     4      2      23
                                              0 COMRAM     6     4      2
 ---------------------------------------------------------------------------------
 Estimated maximum stack depth 7
 ---------------------------------------------------------------------------------

 Call Graph Graphs:

 _main (ROOT)
   _SPI1_Initialize
   _SPI_transmit
     _SPI1_Close
     _SPI1_Openv2
   _SYSTEM_Initialize
     _OSCILLATOR_Initialize
     _PIN_MANAGER_Initialize
     _PMD_Initialize
     _SPI1_Initialize
   _adc_config
   _bcd_2_hexascii
   _filtrar_fir_apuntadores
     ___lmul
   _inicializar_filtro_fir
   _multiplo
     ___fldiv
       ___xxtofl (ARG)
     ___fltol
       ___fladd (ARG)
         ___fldiv (ARG)
           ___xxtofl (ARG)
         ___xxtofl (ARG)
       ___fldiv (ARG)
         ___xxtofl (ARG)
       ___flmul (ARG)
       ___flsub (ARG)
         ___fladd
           ___fldiv (ARG)
             ___xxtofl (ARG)
           ___xxtofl (ARG)
         ___flmul (ARG)
       ___xxtofl (ARG)
   _send_array
   _timer0_config
     _initial_count
       ___flmul
       ___flsub
         ___fladd
           ___fldiv (ARG)
             ___xxtofl (ARG)
           ___xxtofl (ARG)
         ___flmul (ARG)
       ___fltol
         ___fladd (ARG)
           ___fldiv (ARG)
             ___xxtofl (ARG)
           ___xxtofl (ARG)
         ___fldiv (ARG)
           ___xxtofl (ARG)
         ___flmul (ARG)
         ___flsub (ARG)
           ___fladd
             ___fldiv (ARG)
               ___xxtofl (ARG)
             ___xxtofl (ARG)
           ___flmul (ARG)
         ___xxtofl (ARG)
   _uart_config
     ___fladd
       ___fldiv (ARG)
         ___xxtofl (ARG)
       ___xxtofl (ARG)
     ___fldiv
       ___xxtofl (ARG)
     ___fltol
       ___fladd (ARG)
         ___fldiv (ARG)
           ___xxtofl (ARG)
         ___xxtofl (ARG)
       ___fldiv (ARG)
         ___xxtofl (ARG)
       ___flmul (ARG)
       ___flsub (ARG)
         ___fladd
           ___fldiv (ARG)
             ___xxtofl (ARG)
           ___xxtofl (ARG)
         ___flmul (ARG)
       ___xxtofl (ARG)
     ___xxtofl
   _voltage_ref_config

 _ISR (ROOT)
   _read_n_adc
     _read_adc
     _start_conversion
   _send_buffer
     _uart_tx
   _start_conversion
   _timer0_reset

 Address spaces:
Name               Size   Autos  Total    Cost      Usage
BIGRAM            1FFF      0       0      69        0.0%
EEDATA             400      0       0       0        0.0%
BITBANK31          100      0       0      67        0.0%
BANK31             100      0       0      68        0.0%
BITBANK30          100      0       0      65        0.0%
BANK30             100      0       0      66        0.0%
BITBANK29          100      0       0      63        0.0%
BANK29             100      0       0      64        0.0%
BITBANK28          100      0       0      61        0.0%
BANK28             100      0       0      62        0.0%
BITBANK27          100      0       0      59        0.0%
BANK27             100      0       0      60        0.0%
BITBANK26          100      0       0      56        0.0%
BANK26             100      0       0      57        0.0%
BITBANK25          100      0       0      54        0.0%
BANK25             100      0       0      55        0.0%
BITBANK24          100      0       0      52        0.0%
BANK24             100      0       0      53        0.0%
BITBANK23          100      0       0      50        0.0%
BANK23             100      0       0      51        0.0%
BITBANK22          100      0       0      48        0.0%
BANK22             100      0       0      49        0.0%
BITBANK21          100      0       0      46        0.0%
BANK21             100      0       0      47        0.0%
BITBANK20          100      0       0      44        0.0%
BANK20             100      0       0      45        0.0%
BITBANK19          100      0       0      42        0.0%
BANK19             100      0       0      43        0.0%
BITBANK18          100      0       0      40        0.0%
BANK18             100      0       0      41        0.0%
BITBANK17          100      0       0      38        0.0%
BANK17             100      0       0      39        0.0%
BITBANK16          100      0       0      36        0.0%
BANK16             100      0       0      37        0.0%
BITBANK15          100      0       0      34        0.0%
BANK15             100      0       0      35        0.0%
BITBANK14          100      0       0      32        0.0%
BANK14             100      0       0      33        0.0%
BITBANK13          100      0       0      30        0.0%
BANK13             100      0       0      31        0.0%
BITBANK12          100      0       0      28        0.0%
BANK12             100      0       0      29        0.0%
BITBANK11          100      0       0      26        0.0%
BANK11             100      0       0      27        0.0%
BITBANK10          100      0       0      24        0.0%
BANK10             100      0       0      25        0.0%
BITBANK9           100      0       0      22        0.0%
BANK9              100      0       0      23        0.0%
BITBANK8           100      0       0      20        0.0%
BANK8              100      0       0      21        0.0%
BITBANK7           100      0       0      18        0.0%
BANK7              100      0       0      19        0.0%
BITBANK6           100      0       0      16        0.0%
BANK6              100      0       0      17        0.0%
BITBANK5           100      0       0      14        0.0%
BANK5              100      0       0      15        0.0%
BITBANK4           100      0       0      12        0.0%
BANK4              100      0       0      13        0.0%
BITBANK3           100      0       0      10        0.0%
BANK3              100      0       0      11        0.0%
BITBANK2           100      0       0       8        0.0%
BANK2              100      0      86       9       52.3%
BITBANK1           100      0       0       6        0.0%
BANK1              100     15      F9       7       97.3%
BITBANK0            A0      0       0       4        0.0%
BANK0               A0     21      A0       5      100.0%
BITCOMRAM           5F      0       0       0        0.0%
COMRAM              5F     34      49       1       76.8%
BITSFR_8             0      0       0     200        0.0%
SFR_8                0      0       0     200        0.0%
BITSFR_7             0      0       0     200        0.0%
SFR_7                0      0       0     200        0.0%
BITSFR_6             0      0       0     200        0.0%
SFR_6                0      0       0     200        0.0%
BITSFR_5             0      0       0     200        0.0%
SFR_5                0      0       0     200        0.0%
BITSFR_4             0      0       0     200        0.0%
SFR_4                0      0       0     200        0.0%
BITSFR_3             0      0       0     200        0.0%
SFR_3                0      0       0     200        0.0%
BITSFR_2             0      0       0     200        0.0%
SFR_2                0      0       0     200        0.0%
BITSFR_1             0      0       0     200        0.0%
SFR_1                0      0       0     200        0.0%
BITSFR               0      0       0     200        0.0%
SFR                  0      0       0     200        0.0%
STACK                0      0       0       2        0.0%
NULL                 0      0       0       0        0.0%
ABS                  0      0     268      58        0.0%
DATA                 0      0     268       3        0.0%
CODE                 0      0       0       0        0.0%


Microchip Technology PIC18 Macro Assembler V2.31 build 20201012212115 
Symbol Table                                                                                   Fri Oct 01 01:28:10 2021

                       ___fldiv@aexp 00E5                         ___fldiv@bexp 00E4  
                                  _k 003B                                    _w 01A8  
                       ___fldiv@sign 00DD                                   l40 3D30  
                                 l43 3D18                                   l37 3D6A  
                                 l80 3DA0                                   l74 3CF4  
                                 l83 3600                                   l77 3D9A  
                                 l85 360E                                   l86 365A  
                                 l88 3668                                   l89 3676  
                                 _n1 0039                                   _n2 0037  
                                 _n3 0035                                   _n4 0092  
                                 _Ts 00A3                                   _x1 01C0  
                                 _x2 0262                                   _ps 0094  
                                l420 3BEA                                  l500 38F0  
                                l421 3BEC                                  l182 37BE  
                                l510 350C                                  l521 3B48  
                                l417 3D58                                  l522 3B4C  
                                l381 3A2C                                  l390 395A  
                                l384 3BA2                                  l563 2F9C  
                                l539 3CA6                                  l557 2E7A  
                                l590 39C4                                  l589 39B4  
                                l875 3368                                  _ISR 37C0  
            start_conversion@channel 0001               __end_of_bcd_2_hexascii 38F2  
                                _out 00B5              __size_of_PMD_Initialize 0024  
                                wreg 003FE8                         ___flmul@aexp 0028  
                       ___flmul@bexp 0029             __end_of_start_conversion 3D48  
                       ___flmul@sign 0023                         ___flmul@temp 002E  
                       ___flmul@prod 002A                                 ?_ISR 0001  
                       ___fltol@exp1 01ED                                 l1201 2820  
                               l1202 280E                                 l1106 21F8  
                               l1123 2312                                 l1115 24C8  
                               l1107 21E6                                 l1132 23E2  
                               l1108 21AC                                 l1133 23D0  
                               l1160 2CB2                                 l1240 308C  
                               l1209 28D8                                 l1233 2FF4  
                               l1162 2B12                                 l3011 38DE  
                               l1171 2B58                                 l1148 3C34  
                               l1236 3150                                 l3013 38E0  
                               l3005 3860                                 l1173 2BD0  
                               l1165 2AD6                                 l3021 3B24  
                               l1174 2BBE                                 l3007 389E  
                               l3015 3AF6                                 l1247 30E8  
                               l1192 258E                                 l3009 38C0  
                               l3017 3B02                                 l3201 20B0  
                               l3019 3B20                                 l3211 20EA  
                               l3203 20C0                                 l1196 2916  
                               l2501 2654                                 l3301 22F2  
                               l3221 2116                                 l3213 20FC  
                               l3205 20D0                                 l1199 27A8  
                               l2511 26B2                                 l2503 2664  
                               l3311 234C                                 l3303 2302  
                               l3231 212A                                 l3223 211A  
                               l3215 210A                                 l3207 20D2  
                               l3401 32FE                                 l2521 2762  
                               l2513 26D2                                 l2505 2674  
                               l3321 237C                                 l3313 2356  
                               l3305 2328                                 l3241 213E  
                               l3233 212E                                 l3225 211E  
                               l3217 210E                                 l3209 20DA  
                               l3411 3328                                 l3403 3308  
                               l2531 27B8                                 l2523 2770  
                               l2515 26E2                                 l2507 2684  
                               l2451 24F6                                 l2443 24CA  
                               l3331 23A4                                 l3323 2380  
                               l3315 2364                                 l3307 2338  
                               l3251 2178                                 l3243 2142  
                               l3235 2132                                 l3227 2122  
                               l3219 2112                                 l3171 2016  
                               l3501 2AA2                                 l3413 3338  
                               l2533 27C6                                 l2525 278E  
                               l2517 2702                                 l2509 26A2  
                               l2461 2532                                 l2453 2506  
                               l2445 24D6                                 l3341 23FE  
                               l3333 23B2                                 l3325 2390  
                               l3317 2366                                 l3261 21CA  
                               l3253 2194                                 l3245 2146  
                               l3237 2136                                 l3229 2126  
                               l3181 2056                                 l3173 2024  
                               l3421 39C6                                 l2631 374E  
                               l2623 3CF6                                 l3431 3994  
                               l3423 395C                                 l3511 2AFE  
                               l3503 2AB2                                 l3415 3348  
                               l2543 2830                                 l2551 2878  
                               l2535 27CA                                 l2527 2798  
                               l2519 272C                                 l2471 2568  
                               l2463 2538                                 l2455 2516  
                               l2447 24E4                                 l3351 2468  
                               l3343 240C                                 l3335 23C8  
                               l3319 2374                                 l3327 2392  
                               l3271 2216                                 l3263 21D8  
                               l3255 21A4                                 l3239 213A  
                               l3247 214A                                 l3191 2088  
                               l3183 2058                                 l3175 2026  
                               l2641 379C                                 l2633 3754  
                               l2625 3720                                 l3425 396C  
                               l3521 2B3E                                 l3513 2B00  
                               l3505 2AC6                                 l3441 2946  
                               l3433 2918                                 l3417 3358  
                               l3409 331C                                 l2561 28EC  
                               l2553 2892                                 l2545 283C  
                               l2537 27D8                                 l2529 27A6  
                               l2473 2578                                 l2465 2546  
                               l2457 251C                                 l2449 24E6  
                               l3361 24A2                                 l3353 2488  
                               l3345 2446                                 l3281 2256  
                               l3329 23A0                                 l3265 21DA  
                               l3257 21BA                                 l3249 214E  
                               l3193 208A                                 l3177 2036  
                               l3185 2060                                 l3169 2008  
                               l3601 30F6                                 l2651 3D1A  
                               l2643 37A2                                 l2635 3796  
                               l2627 3738                                 l3427 397A  
                               l3531 2B7A                                 l3523 2B48  
                               l3515 2B10                                 l3507 2AD4  
                               l3451 2980                                 l3443 2956  
                               l3435 2926                                 l2563 28FA  
                               l2555 28A6                                 l2547 284A  
                               l2539 2806                                 l2491 2602  
                               l2483 25C2                                 l2475 257E  
                               l2467 2548                                 l2459 252C  
                               l3363 24A8                                 l3355 248C  
                               l3339 23F2                                 l3347 2448  
                               l3291 2280                                 l3283 2262  
                               l3275 222A                                 l3267 21E4  
                               l3259 21C6                                 l3195 2090  
                               l3187 2070                                 l3179 2046  
                               l3371 3BEE                                 l3611 313E  
                               l3603 30F8                                 l2645 37A4  
                               l2637 3798                                 l2629 3746  
                               l2653 3CD0                                 l3429 398A  
                               l3701 2F5E                                 l3541 2BEC  
                               l3533 2B88                                 l3525 2B56  
                               l3517 2B22                                 l3509 2AE0  
                               l3461 29AC                                 l3453 2986  
                               l3445 2966                                 l3437 2934  
                               l2565 28FC                                 l2557 28C0  
                               l2549 2874                                 l2493 261E  
                               l2485 25D2                                 l2477 259E  
                               l2469 2558                                 l3365 24B6  
                               l3357 249A                                 l3349 2458  
                               l3285 2266                                 l3277 223A  
                               l3269 2206                                 l3293 2286  
                               l3197 209E                                 l3189 2076  
                               l3373 3C00                                 l3613 3140  
                               l3605 30FC                                 l3621 34DE  
                               l2647 37A6                                 l2639 379A  
                               l2655 3CE6                                 l3551 2C58  
                               l3543 2BFA                                 l3535 2BB6  
                               l3519 2B38                                 l3527 2B68  
                               l3471 29E6                                 l3463 29BC  
                               l3455 298C                                 l3447 2968  
                               l3439 2936                                 l3391 32CE  
                               l3383 328E                                 l2559 28DC  
                               l2567 2902                                 l2495 262A  
                               l2487 25DC                                 l2479 25AE  
                               l3367 24B8                                 l3359 24A0  
                               l3295 22AC                                 l3287 2274  
                               l3279 2248                                 l3199 20A0  
                               l3607 3120                                 l3631 34F8  
                               l3623 34E6                                 l3711 3152  
                               l2657 3D96                                 l2649 37A8  
                               l3561 2CA6                                 l3553 2C72  
                               l3545 2C24                                 l3529 2B76  
                               l3473 29FC                                 l3465 29CC  
                               l3457 299A                                 l3449 2970  
                               l3393 32DC                                 l3385 32B8  
                               l3377 3262                                 l2569 2906  
                               l2497 2636                                 l2489 25F6  
                               l3297 22E0                                 l3289 2276  
                               l3609 3130                                 l3641 350A  
                               l3633 34FC                                 l3625 34EC  
                               l3617 343C                                 l3721 317E  
                               l3713 3156                                 l2659 3D9C  
                               l3563 2CA8                                 l3555 2C8E  
                               l3539 2BE0                                 l3547 2C28  
                               l3491 2A50                                 l3475 2A0C  
                               l3483 2A2C                                 l3467 29CE  
                               l3459 299C                                 l3387 32BA  
                               l3379 327A                                 l2499 2644  
                               l3299 22E2                                 l3651 3B64  
                               l3643 3B4E                                 l3571 2FA0  
                               l3635 3500                                 l3627 34EE  
                               l3619 343E                                 l3731 31B0  
                               l3723 3182                                 l3715 3170  
              __size_of_SPI_transmit 00B4                                 l3557 2C92  
                               l3549 2C42                                 l3493 2A6A  
                               l3485 2A3C                                 l3477 2A14  
                               l3469 29D6                                 l3389 32CA  
                               l3661 3B9E                                 l3653 3B78  
                               l3645 3B50                                 l3573 2FB0  
                               l3637 3504                                 l3629 34F2  
                               l2941 3D56                                 l3741 3208  
                               l3733 31BC                                 l3725 31A0  
                               l3717 3174                                 l2951 3BD2  
                               l2943 3BA6                                 l3671 2CEA  
                               l3559 2CA0                                 l3495 2A7A  
                               l3487 2A3C                                 l3479 2A18  
                               l3399 32F4                                 l3663 3BA0  
                               l3655 3B8E                                 l3647 3B58  
                               l3591 3076                                 l3583 302E  
                               l3575 2FBE                                 l3639 3506  
                               l3751 324E                                 l3743 320A  
                               l3735 31CE                                 l3727 31A2  
                               l3719 3178                                 l2881 35CA  
                               l2953 3BE4                                 l2945 3BA8  
                               l3681 2D8A                                 l3673 2D0E  
                               l2961 3C92                                 l3497 2A8A  
                               l3665 38F2                                 l3657 3B94  
                               l3649 3B62                                 l3593 3082  
                               l3585 3036                                 l3577 3004  
                               l2937 3D48                                 l3745 3212  
                               l3737 31D2                                 l3729 31A4  
                               l2883 35F0                                 l2875 3D5A  
                               l2947 3BB2                                 l3683 2E16  
                               l3691 2ED8                                 l3675 2D26  
                               l3499 2A9A                                 l3659 3B9A  
                               l3595 30BE                                 l3587 3042  
                               l3579 301A                                 l2939 3D4E  
                               l3747 321E                                 l3739 31D4  
                               l2885 3626                                 l2877 35C4  
                               l2949 3BD0                                 l3693 2EEE  
                               l3685 2E34                                 l3677 2D6C  
                               l3669 2CB4                                 l3597 30CA  
                               l3589 3074                                 l3749 3236  
                               l2887 3672                                 l2879 35C8  
                               l3695 2F22                                 l3687 2E68  
                               l3679 2D7E                                 l2959 3C7E  
                               l3599 30D8                                 l3697 2F3E  
                               l3689 2ED4                                 l3699 2F46  
                               l2999 385C                      send_array@array 0017  
                               u3000 3348                                 u3001 3344  
                               u3010 397A                                 u3011 3976  
                               u3020 39B4                                 u3100 2A3C  
                               u3021 39B0                                 u3101 2A38  
                               _LATA 003FBA                                 u2310 360E  
                               u3110 2AB2                                 u3030 2934  
                               _LATB 003FBB                                 u2311 360A  
                               u3111 2AAE                                 u3031 2930  
                               _LATC 003FBC                                 u2320 3668  
                               u2400 389E                                 u3200 2BCC  
                               u3120 2AD4                                 u3040 2946  
                               _LATD 003FBD                                 u2321 3664  
                               u2401 389A                                 u3201 2BC8  
                               u3121 2AD0                                 u3041 2942  
                               _LATE 003FBE                                 u2410 38F0  
                               u3210 2BE0                                 u3130 2AFE  
                               u3050 2956                                 u2411 38EC  
                               u3211 2BDC                                 u3131 2AFA  
                               u3051 2952                                 u2340 3BE4  
                               u3220 2BFA                                 u3140 2B22  
                               u3060 299A                                 u2420 3B48  
                               u1700 24E4                                 u3300 30BA  
                               u2341 3BE0                                 u3221 2BF6  
                               u3141 2B1E                                 u3061 2996  
                               u2421 3B44                                 u1701 24E0  
                               u3301 30B6                                 u3230 2C42  
                               u3150 2B38                                 u3070 29AC  
                               u1710 24F6                                 u3310 30D8  
                               u3231 2C3E                                 u3151 2B34  
                               u3071 29A8                                 u1711 24F2  
                               u3311 30D4                                 u3240 2C72  
                               u3160 2B56                                 u3080 29BC  
                               u1800 27C6                                 u1720 2506  
                               u2600 20B0                                 u3320 30E8  
                               u3241 2C6E                                 u3161 2B52  
                               u3081 29B8                                 u1801 27C2  
                               u1721 2502                                 u2601 20AC  
                               u3321 30E4                                 u3250 2CA0  
                               u3170 2B76                                 u3090 29FC  
                               u1810 27D8                                 u1730 2546  
                               u2610 20C0                                 u3330 30F6  
                               u3410 31CE                                 u3251 2C9C  
                               u3171 2B72                                 u3091 29F8  
                               u1811 27D4                                 u1731 2542  
                               u2611 20BC                                 u3331 30F2  
                               u3411 31CA                                 u3180 2B88  
                               u1820 2806                                 u1740 2558  
                               u2700 2206                                 u2620 20FC  
                               u3340 3130                                 u3260 2FB0  
                               u3405 2F72                                 u3181 2B84  
                               u1821 2802                                 u1741 2554  
                               u2701 2202                                 u2621 20F8  
                               u3341 312C                                 u3261 2FAC  
                               u3406 2F7C                                 u3190 2BB6  
                               u1830 281C                                 u1750 2568  
                               u2710 2216                                 u2630 210A  
                               u2550 2024                                 u3350 313E  
                               u3270 2FBE                                 u3407 2F8C  
                               u3191 2BB2                                 u1831 2818  
                               u1751 2564                                 u2711 2212  
                               u2631 2106                                 u2551 2020  
                               u3351 313A                                 u3271 2FBA  
                               u1840 2830                                 u1760 259E  
                               u2800 2374                                 u2720 2248  
                               u2640 2178                                 u2560 2036  
                               u3280 301A                                 u1841 282C  
                               u1761 259A                                 u2801 2370  
                               u2721 2244                                 u2641 2174  
                               u2561 2032                                 u3281 3016  
                               u2394 3882                                 u3370 2E34  
                               u1850 284A                                 u1770 25AE  
                               u2810 2390                                 u2730 2256  
                               u2650 2190                                 u2570 2046  
                               u3290 3070                                 u2395 387C  
                               u3371 2E30                                 u1851 2846  
                               u1771 25AA                                 u2811 238C  
                               u2731 2252                                 u2651 218A  
                               u2571 2042                                 u3291 306C  
                               u3380 2EEE                                 u1860 2892  
                               u1780 274C                                 u2900 2468  
                               u2820 23A0                                 u2740 2274  
                               u2660 2192                                 u2580 2088  
                               u3381 2EEA                                 u1861 288E  
                               u2901 2464                                 u2821 239C  
                               u2741 2270                                 u2581 2084  
                               u3365 3462                                 u3390 2F22  
                               u1870 28C0                                 u1790 27A6  
                               u2910 2488                                 u2830 23B2  
                               u2750 22AC                                 u2670 21BA  
                               u2590 209E                                 u3391 2F1E  
                               u1871 28BC                                 u1791 27A2  
                               u2911 2484                                 u2831 23AE  
                               u2751 22A8                                 u2671 21B6  
                               u2591 209A                                 u1880 28FA  
                               u2920 249A                                 u2840 23C8  
                               u2760 22F2                                 u2680 21D8  
                               u1881 28F6                                 u1785 2742  
                               u2921 2496                                 u2841 23C4  
                               u2761 22EE                                 u2681 21D4  
                               u2930 24B6                                 u2850 23DE  
                               u2770 2328                                 u2690 21F8  
                               u2931 24B2                                 u2851 23DA  
                               u2771 2324                                 u2691 21F4  
                               u2940 327A                                 u2860 23F2  
                               u2780 2338                                 _PMD0 0039C0  
                               u2941 3276                                 u2861 23EE  
                               u2781 2334                                 _PMD1 0039C1  
                               u2950 32AE                                 u2870 240C  
                               u2790 2364                                 _PMD2 0039C2  
                               u2871 2408                                 u2791 2360  
                               _PMD3 0039C3                                 u2960 32DC  
                               u2880 2446                                 _PMD4 0039C4  
                               u2961 32D8                                 u2881 2442  
                               _PMD5 0039C5                                 u2970 32F0  
                               u2890 2458                                 _PMD6 0039C6  
                               u2971 32EC                                 u2955 32A4  
                               u2891 2454                                 _PMD7 0039C7  
                               u2980 3318                                 u2981 3314  
                               u2990 3338                                 u2991 3334  
                               _WPUA 003A41                                 _WPUB 003A51  
                               _WPUC 003A61                                 _WPUD 003A71  
                               _WPUE 003A81            ??_filtrar_fir_apuntadores 002D  
                               _den1 0160                                 _den2 0130  
                               _den3 0100                                 _main 3152  
                               _freq 00FA                                 _num1 0178  
                               _num2 0148                                 _num3 0118  
                               fsr1h 003FE2                                 fsr2h 003FDA  
                               indf1 003FE7                                 indf2 003FDF  
                               fsr1l 003FE1                                 fsr2l 003FD9  
                               prodh 003FF4                                 prodl 003FF3  
                               start 001A                      ___fldiv@new_exp 00DE  
                     _SPI1STATUSbits 003D17                         ___param_bank 000000  
                              ??_ISR 0013        filtrar_fir_apuntadores@filtro 002B  
     __size_of_OSCILLATOR_Initialize 0018        __end_of_OSCILLATOR_Initialize 3D32  
                        ?_SPI1_Close 0001                        ___fltol@sign1 01EC  
                    __end_of___fladd 24CA                                ?_main 0001  
                    __end_of___fldiv 2CB4                      __end_of___flmul 2918  
                    __end_of___flsub 3C36                      __end_of___fltol 336A  
                              _U1RXB 003DE8                                _U1TXB 003DEA  
                              i2l430 3CCE                                i2l350 385A  
                              i2l424 3D46                                i2l513 3D94  
                              i2l434 35C2                                i2l527 3A92  
                              i2l387 3D7C                                _OSCEN 0039DD  
                       _SPI_transmit 35C4                                _TMR0H 003FB7  
                              _TMR0L 003FB6                                _TRISA 003FC2  
                              _TRISB 003FC3                                _TRISC 003FC4  
                              _TRISD 003FC5                                _TRISE 003FC6  
                    ?_bcd_2_hexascii 0017                  ___lmul@multiplicand 001B  
                              _gain1 0080                                _gain2 0078  
                              _gain3 0070                                _coef1 0060  
                              _coef2 0190                                _coef3 0200  
                              _coef4 0224                                _count 003D  
                              tablat 003FF5                      __end_of_uart_tx 3D96  
                              status 003FD8             __size_of_SPI1_Initialize 0026  
                    __initialization 336A                         __end_of_main 3262  
    __end_of_filtrar_fir_apuntadores 2F9E                               ??_main 0035  
                      __activetblptr 000001  filtrar_fir_apuntadores@coeficientes 0025  
                       ?_send_buffer 0001                               _ADRESH 003EF0  
                             _ADRESL 003EEF                         ?_SPI1_Openv2 0001  
                             _ANSELA 003A40                               _ANSELB 003A50  
                             _ANSELC 003A60                               _ANSELD 003A70  
                             _ANSELE 003A80                               _RB1I2C 003A5A  
                             _RB2I2C 003A5B                               _RD0I2C 003A7A  
                             _RC3I2C 003A6A                               _RD1I2C 003A7B  
                             _RC4I2C 003A6B                               _U1BRGH 003DF6  
                             _U1BRGL 003DF5                               _RC3PPS 003A13  
                             _RC5PPS 003A15                               _ODCONA 003A42  
                             _ODCONB 003A52                               _ODCONC 003A62  
                             _RC6PPS 003A16                               _ODCOND 003A72  
                             _ODCONE 003A82                               i2l3031 3A44  
                             i2l3023 3D6C                               i2l3041 3A8A  
                             i2l3033 3A56                               i2l3025 3D70  
                             i2l3121 380A                               i2l3113 37C0  
                             i2l3051 359A                               i2l3043 350E  
                             i2l3035 3A5A                               i2l3027 3D76  
                             i2l3131 383C                               i2l3123 3812  
                             i2l3115 37D0                               i2l3061 35C0  
                             i2l3045 354A                               i2l3037 3A78  
                             i2l3029 3A2E                               i2l3133 383E  
                             i2l3117 37D4                               i2l3125 3818  
                             i2l3047 358A                               i2l3039 3A88  
                             i2l3127 3828                               i2l3119 3802  
                             i2l3049 359A                               i2l3057 35A0  
                             i2l3129 382C                               i2l3059 35AE  
                             i2l2661 3D34                               i2l2671 3CA8  
                             i2l2663 3D40                               i2l2673 3CC2  
                             i2l2665 3D42                               i2l2675 3CC6  
                             i2l2667 3D44                               i2l2679 3D8E  
                             _INLVLA 003A44                               _INLVLB 003A54  
                             _INLVLC 003A64                               _INLVLD 003A74  
                             _INLVLE 003A84                               _OSCFRQ 0039DF  
                   __end_of___xxtofl 3152           __end_of_voltage_ref_config 3D5A  
                __size_of_SPI1_Close 0006     filtrar_fir_apuntadores@in_filtro 0023  
                     multiplo@des_Ts 01F0                         _canal_actual 0049  
                             ___lmul 395C                            ??___fladd 0031  
                          ??___fldiv 002D                            ??___flmul 001F  
                          ??___flsub 0035                            ??___fltol 01E8  
                             _des_Ts 009F                 uart_config@baud_rate 01F7  
                   __end_of_read_adc 3CD0                               clear_0 33F8  
                             clear_1 3404                               clear_2 3410  
                             clear_3 341C                  bcd_2_hexascii@digit 001F  
                             _prueba 00B1                         ?_uart_config 01EE  
                     _PMD_Initialize 3CF6                         __pdataCOMRAM 0035  
             __size_of_initial_count 0068                         __mediumconst 0000  
                             tblptrh 003FF7                               tblptrl 003FF6  
                   __end_of_multiplo 395C                               tblptru 003FF8  
                          ??_uart_tx 0001                         ___xxtofl@arg 0021  
                       ___xxtofl@exp 0020                    _SYSTEM_Initialize 3D5A  
                       ___xxtofl@val 0017                           __accesstop 0060  
            __end_of__initialization 342E                   ?_SYSTEM_Initialize 0001  
                      ___rparam_used 000001                           ___fltol@f1 01E4  
                     __pcstackCOMRAM 0001                         __pidataBANK0 3C36  
                       __pidataBANK1 3678                         __pidataBANK2 3A94  
                         _adc_config 3BA4                  ??_SYSTEM_Initialize 0017  
                  ??_SPI1_Initialize 0017               __end_of_PMD_Initialize 3D1A  
                 _spi1_configuration 2001                __end_of_timer0_config 3BA4  
                  ?_start_conversion 0001            __end_of_SYSTEM_Initialize 3D6C  
                 ??_start_conversion 0001                           __pbssBANK0 00A7  
                         __pbssBANK1 01A8                           __pbssBANK2 0262  
                            IVTBASEH 003FD6                              IVTBASEL 003FD5  
                            IVTBASEU 003FD7                        _initial_count 39C6  
                            ?___lmul 0017             uart_config@interrupt_ena 01F2  
                   ??_bcd_2_hexascii 001C                       ___lmul@product 001F  
            adc_config@interrupt_ena 0017                         ??_SPI1_Close 0017  
                    ?_PMD_Initialize 0001             ??_inicializar_filtro_fir 0019  
                            _U1RXPPS 003AE5                            ?___xxtofl 0017  
                            _OSCCON1 0039D9                              _OSCCON3 0039DB  
                            _SPI1CLK 003D1C                              _SPI1TXB 003D11  
                            _OSCTUNE 0039DE                              _SLRCONA 003A43  
                            _SLRCONB 003A53                              _SLRCONC 003A63  
                            _SLRCOND 003A73                              _SLRCONE 003A83  
                        send_array@i 001C                 __size_of_send_buffer 0066  
                          _ADCLKbits 003EFF                  read_n_adc@n_canales 000B  
               __size_of_SPI1_Openv2 0006                            ?_read_adc 0001  
                          _ADPCHbits 003EF1                       ?_initial_count 01EE  
                          _ADREFbits 003EFD                   __end_of_SPI1_Close 3DA2  
                            __Hparam 0000                              __Lparam 0000  
                        ?_adc_config 0001                            ?_multiplo 01EE  
                            ___fladd 2008                              ___fldiv 2918  
                    __size_of___lmul 006A                              ___flmul 24CA  
                            ___flsub 3BEE                              ___fltol 3262  
                       __psmallconst 2000                           _init_count 00FE  
                     _lecturas_ascii 0096                              __pcinit 336A  
                         _read_n_adc 350E                              __ramtop 2000  
                      ?_timer0_reset 0001                              __ptext0 3152  
                            __ptext1 3D48                              __ptext2 343C  
                            __ptext3 2F9E                              __ptext4 3B4E  
                            __ptext5 39C6                              __ptext6 3BEE  
                            __ptext7 2008                              __ptext8 24CA  
                            __ptext9 3AF6                              _command 00BD  
                       __size_of_ISR 009C                _OSCILLATOR_Initialize 3D1A  
                         ??___xxtofl 001B             ??_PIN_MANAGER_Initialize 0017  
               __size_of_uart_config 00D2                              _uart_tx 3D8C  
                            _rx_done 0048             ?_filtrar_fir_apuntadores 0023  
         __size_of_SYSTEM_Initialize 0012                 end_of_initialization 342E  
               bcd_2_hexascii@number 0017         inicializar_filtro_fir@filtro 0017  
                         _send_array 3AF6                           ??_read_adc 0003  
                            postdec1 003FE5                              postdec2 003FDD  
                         ??_multiplo 0035                              postinc0 003FEE  
                            postinc1 003FE6                              postinc2 003FDE  
                 _voltage_ref_config 3D48                       ??_timer0_reset 0001  
                        uart_tx@data 0001                          ___fladd@grs 00F1  
    __size_of_inicializar_filtro_fir 002A                        ___xxtofl@sign 001F  
                ?_voltage_ref_config 0001                            _TRISCbits 003FC4  
                         _out_filtro 00B9                          ___fldiv@grs 00E0  
                        ___fldiv@rem 00D9                  __size_of_adc_config 004A  
                    ??_initial_count 0035                          ___flmul@grs 0024  
           uart_config@des_baud_rate 01EE                      _SPI1_Initialize 3CD0  
               ??_voltage_ref_config 0017                         _filtro_fir_1 00C9  
                       _filtro_fir_2 00C1                       __end_of___lmul 39C6  
                      __pidataCOMRAM 3D7E                          ?_read_n_adc 0007  
             ?_OSCILLATOR_Initialize 0001                  start_initialization 336A  
                        __end_of_ISR 385C      __size_of_PIN_MANAGER_Initialize 00A0  
                       _len_buffertx 0041                           ivt0x8_base 0008  
                        ?_send_array 0017                         _n_secciones1 0090  
                       _n_secciones2 008E                         _n_secciones3 008C  
             _inicializar_filtro_fir 3C7E                         _lectura_done 00C0  
          __size_of_start_conversion 0016                     ??_PMD_Initialize 0017  
                           ??___lmul 001F  filtrar_fir_apuntadores@orden_filtro 0027  
                        __pdataBANK0 0060                          __pdataBANK1 0100  
                        __pdataBANK2 0200                            ___fladd@a 00EA  
                          ___fladd@b 00E6                        ?_SPI_transmit 0017  
                          ___fldiv@a 0029                            ___fldiv@b 0025  
                          ___flmul@a 001B                            ___flmul@b 0017  
                        __pbssCOMRAM 0042                            ___flsub@a 00F6  
                          ___flsub@b 00F2                        __pcstackBANK0 00D9  
                      __pcstackBANK1 01E4                   _lecturas_filtradas 00D1  
                  __size_of___xxtofl 01B4              __end_of_SPI1_Initialize 3CF6  
               __end_of_timer0_reset 3D7E                  __size_of_read_n_adc 00B6  
                          __pnvBANK0 00FA                    __size_of_read_adc 0028  
             _PIN_MANAGER_Initialize 3720                     _bufferrx_pointer 0044  
             __size_of_timer0_config 0056                         ??_adc_config 0017  
                           ?___fladd 00E6                             ?___fldiv 0025  
                           ?___flmul 0017                             ?___flsub 00F2  
                           ?___fltol 01E4                    __size_of_multiplo 006A  
                          _n_canales 0040                     _buffertx_pointer 0046  
                     ??_SPI_transmit 0019                  __size_of_send_array 0058  
                        __smallconst 2000                   read_n_adc@lecturas 0007  
                           ?_uart_tx 0001                        ??_send_buffer 0002  
         bcd_2_hexascii@digits_ascii 0019                        ??_SPI1_Openv2 0017  
                        _U1ERRIRbits 003DF9                   __end_of_adc_config 3BEE  
                           _LATBbits 003FBB                             _LATDbits 003FBD  
                           _LATEbits 003FBE                             _PIE1bits 003991  
                           _PIE3bits 003993                         _SPI1CON0bits 003D14  
                           i2u250_40 3828                             i2u250_41 3824  
                           i2u243_40 3A44                             i2u251_40 383C  
                           i2u243_41 3A40                             i2u251_41 3838  
                           i2u244_40 3A78                             i2u244_41 3A74  
                           i2u245_40 3A88                             i2u245_41 3A84  
                           i2u246_40 358A                             i2u246_41 3586  
                           i2u248_40 37D0                             i2u248_41 37CC  
                           i2u249_40 3802                             i2u249_41 37FE  
                           _PIR1bits 0039A1                             _SPI1BAUD 003D19  
                           _PIR3bits 0039A3                             _SPI1CON0 003D14  
                           _SPI1CON1 003D15                             _SPI1CON2 003D16  
   __size_of_filtrar_fir_apuntadores 02EA                             _SPI1TCNT 003D12  
                        _command_bcd 0042         _filtrar_fir_apuntadores$1591 00DB  
                         _ADCON0bits 003EF8                           _ADCON2bits 003EFA  
                      ??_uart_config 01F3                       read_adc@result 0005  
                         multiplo@Ts 01EE                        _timer0_config 3B4E  
            __size_of_bcd_2_hexascii 0096                     ?_SPI1_Initialize 0001  
                        _INTCON0bits 003FD2                    ___lmul@multiplier 0017  
                          copy_data0 337E                            copy_data1 33A0  
                          copy_data2 33C2                            copy_data3 33E4  
                __end_of_send_buffer 3A94                 SPI_transmit@lecturas 0017  
                __end_of_SPI1_Openv2 3D9C                             __Hrparam 0000  
                   _start_conversion 3D32                             __Lrparam 0000  
                       __Lsmallconst 2000              ??_OSCILLATOR_Initialize 0017  
                   __size_of___fladd 04C2                     __size_of___fldiv 039C  
                   __size_of___flmul 044E                     __size_of___flsub 0048  
                   __size_of___fltol 0108                         ??_read_n_adc 000C  
             read_n_adc@canal_actual 0009                             ___xxtofl 2F9E  
                         _T0CON0bits 003FB8                           _T0CON1bits 003FB9  
                     ?_timer0_config 0001                             __pivt0x8 0008  
           filtrar_fir_apuntadores@i 00D9                             _clk_freq 0088  
           filtrar_fir_apuntadores@x 0029                             __ptext10 38F2  
                           __ptext11 3262                             __ptext20 3CF6  
                           __ptext12 2918                             __ptext21 3720  
                           __ptext13 3C7E                             __ptext30 350E  
                           __ptext22 3D1A                             __ptext14 2CB4  
                           __ptext31 3D32                             __ptext23 35C4  
                           __ptext15 395C                             __ptext32 3CA8  
                           __ptext24 3D96                             __ptext16 385C  
                           __ptext25 3D9C                             __ptext17 3BA4  
                           __ptext26 37C0                             __ptext18 3D5A  
                           __ptext27 3D6C                             __ptext19 3CD0  
                           __ptext28 3A2E                             __ptext29 3D8C  
              __size_of_timer0_reset 0012                  __end_of_uart_config 350E  
                   __size_of_uart_tx 000A                           _U1CON0bits 003DF2  
                         _U1CON1bits 003DF3                             _buffertx 00A7  
            ?_inicializar_filtro_fir 0017                       initial_count@T 01EE  
                           _lecturas 00D5                         ??_send_array 0019  
                           _read_adc 3CA8                        __size_of_main 0110  
              __end_of_initial_count 3A2E                 __end_of_SPI_transmit 3678  
                 __end_of_read_n_adc 35C4          __size_of_voltage_ref_config 0012  
              bcd_2_hexascii@desfase 001B                             _multiplo 38F2  
                       _timer0_reset 3D6C                   __end_of_send_array 3B4E  
                         _FVRCONbits 003EC1                       _command_length 003F  
                        _send_buffer 3A2E       __end_of_inicializar_filtro_fir 3CA8  
                        _SPI1_Openv2 3D96                             intlevel2 0000  
            ?_PIN_MANAGER_Initialize 0001              _filtrar_fir_apuntadores 2CB4  
                         _SPI1SCKPPS 003ADE                           _SPI1SDIPPS 003ADF  
                         _SPI1TWIDTH 003D18                      bcd_2_hexascii@i 0020  
                         _SPI1_Close 3D9C                          _uart_config 343C  
                    ??_timer0_config 0035                       _bcd_2_hexascii 385C  
                      ___fladd@signs 00EE       __end_of_PIN_MANAGER_Initialize 37C0  
                       ___fladd@aexp 00EF                         ___fladd@bexp 00F0  
         __end_of_spi1_configuration 2006  
